libavkys.so.8 libavkys8 #MINVER#
 _Z17qRegisterMetaTypeI11AkAudioCapsEiPKcPT_N9QtPrivate21MetaTypeDefinedHelperIS3_Xaasr12QMetaTypeId2IS3_E7DefinedntsrS8_9IsBuiltInEE11DefinedTypeE@Base 8.5.0
 _Z17qRegisterMetaTypeI11AkVideoCapsEiPKcPT_N9QtPrivate21MetaTypeDefinedHelperIS3_Xaasr12QMetaTypeId2IS3_E7DefinedntsrS8_9IsBuiltInEE11DefinedTypeE@Base 8.5.0
 _Z17qRegisterMetaTypeI6AkCapsEiPKcPT_N9QtPrivate21MetaTypeDefinedHelperIS3_Xaasr12QMetaTypeId2IS3_E7DefinedntsrS8_9IsBuiltInEE11DefinedTypeE@Base 8.5.0
 _Z17qRegisterMetaTypeI6AkFracEiPKcPT_N9QtPrivate21MetaTypeDefinedHelperIS3_Xaasr12QMetaTypeId2IS3_E7DefinedntsrS8_9IsBuiltInEE11DefinedTypeE@Base 8.5.0
 _Z17qRegisterMetaTypeI8AkPacketEiPKcPT_N9QtPrivate21MetaTypeDefinedHelperIS3_Xaasr12QMetaTypeId2IS3_E7DefinedntsrS8_9IsBuiltInEE11DefinedTypeE@Base 8.5.0
 _Z17qRegisterMetaTypeIN11AkAudioCaps12SampleFormatEEiPKcPT_N9QtPrivate21MetaTypeDefinedHelperIS4_Xaasr12QMetaTypeId2IS4_E7DefinedntsrS9_9IsBuiltInEE11DefinedTypeE@Base 8.5.0
 _Z17qRegisterMetaTypeIN11AkAudioCaps13ChannelLayoutEEiPKcPT_N9QtPrivate21MetaTypeDefinedHelperIS4_Xaasr12QMetaTypeId2IS4_E7DefinedntsrS9_9IsBuiltInEE11DefinedTypeE@Base 8.5.0
 _Z17qRegisterMetaTypeIN11AkVideoCaps11PixelFormatEEiPKcPT_N9QtPrivate21MetaTypeDefinedHelperIS4_Xaasr12QMetaTypeId2IS4_E7DefinedntsrS9_9IsBuiltInEE11DefinedTypeE@Base 8.5.0
 _Z17qRegisterMetaTypeIN6AkCaps8CapsTypeEEiPKcPT_N9QtPrivate21MetaTypeDefinedHelperIS4_Xaasr12QMetaTypeId2IS4_E7DefinedntsrS9_9IsBuiltInEE11DefinedTypeE@Base 8.5.0
 _Z17qRegisterMetaTypeIN9AkElement12ElementStateEEiPKcPT_N9QtPrivate21MetaTypeDefinedHelperIS4_Xaasr12QMetaTypeId2IS4_E7DefinedntsrS9_9IsBuiltInEE11DefinedTypeE@Base 8.5.0
 _Z27qRegisterNormalizedMetaTypeI14QSharedPointerI9AkElementEEiRK10QByteArrayPT_N9QtPrivate21MetaTypeDefinedHelperIS6_Xaasr12QMetaTypeId2IS6_E7DefinedntsrSB_9IsBuiltInEE11DefinedTypeE@Base 8.5.0
 _Z27qRegisterNormalizedMetaTypeI5QListIiEEiRK10QByteArrayPT_N9QtPrivate21MetaTypeDefinedHelperIS5_Xaasr12QMetaTypeId2IS5_E7DefinedntsrSA_9IsBuiltInEE11DefinedTypeE@Base 8.5.0
 _ZGVZN11VideoFormat7formatsEvE12videoFormats@Base 8.5.0
 _ZGVZN13SampleFormats7formatsEvE13sampleFormats@Base 8.5.0
 _ZGVZN14ChannelLayouts7layoutsEvE14channelLayouts@Base 8.5.0
 _ZGVZN9QtPrivate19ValueTypeIsMetaTypeI5QListIiELb1EE17registerConverterEiE1f@Base 8.5.0
 _ZGVZN9QtPrivate26MetaTypeSmartPointerHelperI14QSharedPointerI9AkElementEvE17registerConverterEiE1f@Base 8.5.0
 _ZN10QByteArrayD1Ev@Base 8.5.0
 _ZN10QByteArrayD2Ev@Base 8.5.0
 _ZN11AkAudioCaps10bpsChangedEi@Base 8.5.0
 _ZN11AkAudioCaps10endiannessENS_12SampleFormatE@Base 8.5.0
 _ZN11AkAudioCaps10endiannessERK7QString@Base 8.5.0
 _ZN11AkAudioCaps10fromStringERK7QString@Base 8.5.0
 _ZN11AkAudioCaps10resetAlignEv@Base 8.5.0
 _ZN11AkAudioCaps10sampleTypeENS_12SampleFormatE@Base 8.5.0
 _ZN11AkAudioCaps10sampleTypeERK7QString@Base 8.5.0
 _ZN11AkAudioCaps10setSamplesEi@Base 8.5.0
 _ZN11AkAudioCaps11qt_metacallEN11QMetaObject4CallEiPPv@Base 8.5.0
 _ZN11AkAudioCaps11qt_metacastEPKc@Base 8.5.0
 _ZN11AkAudioCaps11rateChangedEi@Base 8.5.0
 _ZN11AkAudioCaps11resetFormatEv@Base 8.5.0
 _ZN11AkAudioCaps11resetLayoutEv@Base 8.5.0
 _ZN11AkAudioCaps11setChannelsEi@Base 8.5.0
 _ZN11AkAudioCaps12alignChangedEi@Base 8.5.0
 _ZN11AkAudioCaps12channelCountENS_13ChannelLayoutE@Base 8.5.0
 _ZN11AkAudioCaps12channelCountERK7QString@Base 8.5.0
 _ZN11AkAudioCaps12resetSamplesEv@Base 8.5.0
 _ZN11AkAudioCaps13bitsPerSampleENS_12SampleFormatE@Base 8.5.0
 _ZN11AkAudioCaps13bitsPerSampleERK7QString@Base 8.5.0
 _ZN11AkAudioCaps13formatChangedENS_12SampleFormatE@Base 8.5.0
 _ZN11AkAudioCaps13layoutChangedENS_13ChannelLayoutE@Base 8.5.0
 _ZN11AkAudioCaps13resetChannelsEv@Base 8.5.0
 _ZN11AkAudioCaps14samplesChangedEi@Base 8.5.0
 _ZN11AkAudioCaps15channelsChangedEi@Base 8.5.0
 _ZN11AkAudioCaps16staticMetaObjectE@Base 8.5.0
 _ZN11AkAudioCaps20defaultChannelLayoutEi@Base 8.5.0
 _ZN11AkAudioCaps20sampleFormatToStringENS_12SampleFormatE@Base 8.5.0
 _ZN11AkAudioCaps21channelLayoutToStringENS_13ChannelLayoutE@Base 8.5.0
 _ZN11AkAudioCaps22sampleFormatFromStringERK7QString@Base 8.5.0
 _ZN11AkAudioCaps22sampleFormatPropertiesENS_12SampleFormatEPNS_10SampleTypeEPiS3_Pb@Base 8.5.0
 _ZN11AkAudioCaps22sampleFormatPropertiesERK7QStringPNS_10SampleTypeEPiS5_Pb@Base 8.5.0
 _ZN11AkAudioCaps23channelLayoutFromStringERK7QString@Base 8.5.0
 _ZN11AkAudioCaps26defaultChannelLayoutStringEi@Base 8.5.0
 _ZN11AkAudioCaps26sampleFormatFromPropertiesENS_10SampleTypeEiib@Base 8.5.0
 _ZN11AkAudioCaps3bpsEv@Base 8.5.0
 _ZN11AkAudioCaps4rateEv@Base 8.5.0
 _ZN11AkAudioCaps5alignEv@Base 8.5.0
 _ZN11AkAudioCaps6formatEv@Base 8.5.0
 _ZN11AkAudioCaps6layoutEv@Base 8.5.0
 _ZN11AkAudioCaps6setBpsEi@Base 8.5.0
 _ZN11AkAudioCaps6updateERK6AkCaps@Base 8.5.0
 _ZN11AkAudioCaps7fromMapERK4QMapI7QString8QVariantE@Base 8.5.0
 _ZN11AkAudioCaps7isValidEv@Base 8.5.0
 _ZN11AkAudioCaps7samplesEv@Base 8.5.0
 _ZN11AkAudioCaps7setRateEi@Base 8.5.0
 _ZN11AkAudioCaps8channelsEv@Base 8.5.0
 _ZN11AkAudioCaps8isPlanarENS_12SampleFormatE@Base 8.5.0
 _ZN11AkAudioCaps8isPlanarERK7QString@Base 8.5.0
 _ZN11AkAudioCaps8resetBpsEv@Base 8.5.0
 _ZN11AkAudioCaps8setAlignEi@Base 8.5.0
 _ZN11AkAudioCaps9resetRateEv@Base 8.5.0
 _ZN11AkAudioCaps9setFormatENS_12SampleFormatE@Base 8.5.0
 _ZN11AkAudioCaps9setLayoutENS_13ChannelLayoutE@Base 8.5.0
 _ZN11AkAudioCapsC1ENS_12SampleFormatEii@Base 8.5.0
 _ZN11AkAudioCapsC1EP7QObject@Base 8.5.0
 _ZN11AkAudioCapsC1ERK4QMapI7QString8QVariantE@Base 8.5.0
 _ZN11AkAudioCapsC1ERK6AkCaps@Base 8.5.0
 _ZN11AkAudioCapsC1ERK7QString@Base 8.5.0
 _ZN11AkAudioCapsC1ERKS_@Base 8.5.0
 _ZN11AkAudioCapsC2ENS_12SampleFormatEii@Base 8.5.0
 _ZN11AkAudioCapsC2EP7QObject@Base 8.5.0
 _ZN11AkAudioCapsC2ERK4QMapI7QString8QVariantE@Base 8.5.0
 _ZN11AkAudioCapsC2ERK6AkCaps@Base 8.5.0
 _ZN11AkAudioCapsC2ERK7QString@Base 8.5.0
 _ZN11AkAudioCapsC2ERKS_@Base 8.5.0
 _ZN11AkAudioCapsD0Ev@Base 8.5.0
 _ZN11AkAudioCapsD1Ev@Base 8.5.0
 _ZN11AkAudioCapsD2Ev@Base 8.5.0
 _ZN11AkAudioCapsaSERK6AkCaps@Base 8.5.0
 _ZN11AkAudioCapsaSERK7QString@Base 8.5.0
 _ZN11AkAudioCapsaSERKS_@Base 8.5.0
 _ZN11AkVideoCaps10bppChangedEi@Base 8.5.0
 _ZN11AkVideoCaps10fpsChangedERK6AkFrac@Base 8.5.0
 _ZN11AkVideoCaps10fromStringERK7QString@Base 8.5.0
 _ZN11AkVideoCaps10resetWidthEv@Base 8.5.0
 _ZN11AkVideoCaps11qt_metacallEN11QMetaObject4CallEiPPv@Base 8.5.0
 _ZN11AkVideoCaps11qt_metacastEPKc@Base 8.5.0
 _ZN11AkVideoCaps11resetFormatEv@Base 8.5.0
 _ZN11AkVideoCaps11resetHeightEv@Base 8.5.0
 _ZN11AkVideoCaps11sizeChangedERK5QSize@Base 8.5.0
 _ZN11AkVideoCaps12bitsPerPixelENS_11PixelFormatE@Base 8.5.0
 _ZN11AkVideoCaps12bitsPerPixelERK7QString@Base 8.5.0
 _ZN11AkVideoCaps12widthChangedEi@Base 8.5.0
 _ZN11AkVideoCaps13formatChangedENS_11PixelFormatE@Base 8.5.0
 _ZN11AkVideoCaps13heightChangedEi@Base 8.5.0
 _ZN11AkVideoCaps16staticMetaObjectE@Base 8.5.0
 _ZN11AkVideoCaps19pixelFormatToStringENS_11PixelFormatE@Base 8.5.0
 _ZN11AkVideoCaps21pixelFormatFromStringERK7QString@Base 8.5.0
 _ZN11AkVideoCaps3bppEv@Base 8.5.0
 _ZN11AkVideoCaps3fpsEv@Base 8.5.0
 _ZN11AkVideoCaps5clearEv@Base 8.5.0
 _ZN11AkVideoCaps5widthEv@Base 8.5.0
 _ZN11AkVideoCaps6formatEv@Base 8.5.0
 _ZN11AkVideoCaps6fourCCENS_11PixelFormatE@Base 8.5.0
 _ZN11AkVideoCaps6fourCCERK7QString@Base 8.5.0
 _ZN11AkVideoCaps6heightEv@Base 8.5.0
 _ZN11AkVideoCaps6setBppEi@Base 8.5.0
 _ZN11AkVideoCaps6setFpsERK6AkFrac@Base 8.5.0
 _ZN11AkVideoCaps6updateERK6AkCaps@Base 8.5.0
 _ZN11AkVideoCaps7fromMapERK4QMapI7QString8QVariantE@Base 8.5.0
 _ZN11AkVideoCaps7isValidEv@Base 8.5.0
 _ZN11AkVideoCaps7setSizeERK5QSize@Base 8.5.0
 _ZN11AkVideoCaps8resetBppEv@Base 8.5.0
 _ZN11AkVideoCaps8resetFpsEv@Base 8.5.0
 _ZN11AkVideoCaps8setWidthEi@Base 8.5.0
 _ZN11AkVideoCaps9resetSizeEv@Base 8.5.0
 _ZN11AkVideoCaps9setFormatENS_11PixelFormatE@Base 8.5.0
 _ZN11AkVideoCaps9setHeightEi@Base 8.5.0
 _ZN11AkVideoCapsC1EP7QObject@Base 8.5.0
 _ZN11AkVideoCapsC1ERK4QMapI7QString8QVariantE@Base 8.5.0
 _ZN11AkVideoCapsC1ERK6AkCaps@Base 8.5.0
 _ZN11AkVideoCapsC1ERK7QString@Base 8.5.0
 _ZN11AkVideoCapsC1ERKS_@Base 8.5.0
 _ZN11AkVideoCapsC2EP7QObject@Base 8.5.0
 _ZN11AkVideoCapsC2ERK4QMapI7QString8QVariantE@Base 8.5.0
 _ZN11AkVideoCapsC2ERK6AkCaps@Base 8.5.0
 _ZN11AkVideoCapsC2ERK7QString@Base 8.5.0
 _ZN11AkVideoCapsC2ERKS_@Base 8.5.0
 _ZN11AkVideoCapsD0Ev@Base 8.5.0
 _ZN11AkVideoCapsD1Ev@Base 8.5.0
 _ZN11AkVideoCapsD2Ev@Base 8.5.0
 _ZN11AkVideoCapsaSERK6AkCaps@Base 8.5.0
 _ZN11AkVideoCapsaSERK7QString@Base 8.5.0
 _ZN11AkVideoCapsaSERKS_@Base 8.5.0
 _ZN13AkAudioPacket11capsChangedERK11AkAudioCaps@Base 8.5.0
 _ZN13AkAudioPacket11qt_metacallEN11QMetaObject4CallEiPPv@Base 8.5.0
 _ZN13AkAudioPacket11qt_metacastEPKc@Base 8.5.0
 _ZN13AkAudioPacket16staticMetaObjectE@Base 8.5.0
 _ZN13AkAudioPacket4capsEv@Base 8.5.0
 _ZN13AkAudioPacket7setCapsERK11AkAudioCaps@Base 8.5.0
 _ZN13AkAudioPacket9resetCapsEv@Base 8.5.0
 _ZN13AkAudioPacketC1EP7QObject@Base 8.5.0
 _ZN13AkAudioPacketC1ERK11AkAudioCapsRK10QByteArrayxRK6AkFracix@Base 8.5.0
 _ZN13AkAudioPacketC1ERK8AkPacket@Base 8.5.0
 _ZN13AkAudioPacketC1ERKS_@Base 8.5.0
 _ZN13AkAudioPacketC2EP7QObject@Base 8.5.0
 _ZN13AkAudioPacketC2ERK11AkAudioCapsRK10QByteArrayxRK6AkFracix@Base 8.5.0
 _ZN13AkAudioPacketC2ERK8AkPacket@Base 8.5.0
 _ZN13AkAudioPacketC2ERKS_@Base 8.5.0
 _ZN13AkAudioPacketD0Ev@Base 8.5.0
 _ZN13AkAudioPacketD1Ev@Base 8.5.0
 _ZN13AkAudioPacketD2Ev@Base 8.5.0
 _ZN13AkAudioPacketaSERK8AkPacket@Base 8.5.0
 _ZN13AkAudioPacketaSERKS_@Base 8.5.0
 _ZN13AkVideoPacket11capsChangedERK11AkVideoCaps@Base 8.5.0
 _ZN13AkVideoPacket11qt_metacallEN11QMetaObject4CallEiPPv@Base 8.5.0
 _ZN13AkVideoPacket11qt_metacastEPKc@Base 8.5.0
 _ZN13AkVideoPacket16staticMetaObjectE@Base 8.5.0
 _ZN13AkVideoPacket4capsEv@Base 8.5.0
 _ZN13AkVideoPacket7setCapsERK11AkVideoCaps@Base 8.5.0
 _ZN13AkVideoPacket9fromImageERK6QImageRKS_@Base 8.5.0
 _ZN13AkVideoPacket9resetCapsEv@Base 8.5.0
 _ZN13AkVideoPacketC1EP7QObject@Base 8.5.0
 _ZN13AkVideoPacketC1ERK11AkVideoCapsRK10QByteArrayxRK6AkFracix@Base 8.5.0
 _ZN13AkVideoPacketC1ERK8AkPacket@Base 8.5.0
 _ZN13AkVideoPacketC1ERKS_@Base 8.5.0
 _ZN13AkVideoPacketC2EP7QObject@Base 8.5.0
 _ZN13AkVideoPacketC2ERK11AkVideoCapsRK10QByteArrayxRK6AkFracix@Base 8.5.0
 _ZN13AkVideoPacketC2ERK8AkPacket@Base 8.5.0
 _ZN13AkVideoPacketC2ERKS_@Base 8.5.0
 _ZN13AkVideoPacketD0Ev@Base 8.5.0
 _ZN13AkVideoPacketD1Ev@Base 8.5.0
 _ZN13AkVideoPacketD2Ev@Base 8.5.0
 _ZN13AkVideoPacketaSERK8AkPacket@Base 8.5.0
 _ZN13AkVideoPacketaSERKS_@Base 8.5.0
 _ZN14ChannelLayouts7layoutsEv@Base 8.5.0
 _ZN15QtSharedPointer33ExternalRefCountWithCustomDeleterI9AkElementNS_13NormalDeleterEE7deleterEPNS_20ExternalRefCountDataE@Base 8.5.0
 _ZN16AkElementPrivate11listPluginsEv@Base 8.5.0
 _ZN16AkElementPrivate12methodCompatERK11QMetaMethodS2_@Base 8.5.0
 _ZN16AkElementPrivate13methodsByNameEPK7QObjectRK7QString@Base 8.5.0
 _ZN16AkElementPrivate8pluginIdERK7QString@Base 8.5.0
 _ZN16AkElementPrivateC1Ev@Base 8.5.0
 _ZN16AkElementPrivateC2Ev@Base 8.5.0
 _ZN17QtMetaTypePrivate19IteratorOwnerCommonIN5QListIiE14const_iteratorEE5equalEPKPvS7_@Base 8.5.0
 _ZN17QtMetaTypePrivate19IteratorOwnerCommonIN5QListIiE14const_iteratorEE6assignEPPvPKS5_@Base 8.5.0
 _ZN17QtMetaTypePrivate19IteratorOwnerCommonIN5QListIiE14const_iteratorEE7advanceEPPvi@Base 8.5.0
 _ZN17QtMetaTypePrivate19IteratorOwnerCommonIN5QListIiE14const_iteratorEE7destroyEPPv@Base 8.5.0
 _ZN17QtMetaTypePrivate23QMetaTypeFunctionHelperI11AkAudioCapsLb1EE4LoadER11QDataStreamPv@Base 8.5.0
 _ZN17QtMetaTypePrivate23QMetaTypeFunctionHelperI11AkAudioCapsLb1EE4SaveER11QDataStreamPKv@Base 8.5.0
 _ZN17QtMetaTypePrivate23QMetaTypeFunctionHelperI11AkAudioCapsLb1EE8DestructEPv@Base 8.5.0
 _ZN17QtMetaTypePrivate23QMetaTypeFunctionHelperI11AkAudioCapsLb1EE9ConstructEPvPKv@Base 8.5.0
 _ZN17QtMetaTypePrivate23QMetaTypeFunctionHelperI11AkVideoCapsLb1EE4LoadER11QDataStreamPv@Base 8.5.0
 _ZN17QtMetaTypePrivate23QMetaTypeFunctionHelperI11AkVideoCapsLb1EE4SaveER11QDataStreamPKv@Base 8.5.0
 _ZN17QtMetaTypePrivate23QMetaTypeFunctionHelperI11AkVideoCapsLb1EE8DestructEPv@Base 8.5.0
 _ZN17QtMetaTypePrivate23QMetaTypeFunctionHelperI11AkVideoCapsLb1EE9ConstructEPvPKv@Base 8.5.0
 _ZN17QtMetaTypePrivate23QMetaTypeFunctionHelperI13AkVideoPacketLb1EE8DestructEPv@Base 8.5.0
 _ZN17QtMetaTypePrivate23QMetaTypeFunctionHelperI13AkVideoPacketLb1EE9ConstructEPvPKv@Base 8.5.0
 _ZN17QtMetaTypePrivate23QMetaTypeFunctionHelperI14QSharedPointerI9AkElementELb1EE8DestructEPv@Base 8.5.0
 _ZN17QtMetaTypePrivate23QMetaTypeFunctionHelperI14QSharedPointerI9AkElementELb1EE9ConstructEPvPKv@Base 8.5.0
 _ZN17QtMetaTypePrivate23QMetaTypeFunctionHelperI5QListIiELb1EE8DestructEPv@Base 8.5.0
 _ZN17QtMetaTypePrivate23QMetaTypeFunctionHelperI5QListIiELb1EE9ConstructEPvPKv@Base 8.5.0
 _ZN17QtMetaTypePrivate23QMetaTypeFunctionHelperI6AkCapsLb1EE4LoadER11QDataStreamPv@Base 8.5.0
 _ZN17QtMetaTypePrivate23QMetaTypeFunctionHelperI6AkCapsLb1EE4SaveER11QDataStreamPKv@Base 8.5.0
 _ZN17QtMetaTypePrivate23QMetaTypeFunctionHelperI6AkCapsLb1EE8DestructEPv@Base 8.5.0
 _ZN17QtMetaTypePrivate23QMetaTypeFunctionHelperI6AkCapsLb1EE9ConstructEPvPKv@Base 8.5.0
 _ZN17QtMetaTypePrivate23QMetaTypeFunctionHelperI6AkFracLb1EE4LoadER11QDataStreamPv@Base 8.5.0
 _ZN17QtMetaTypePrivate23QMetaTypeFunctionHelperI6AkFracLb1EE4SaveER11QDataStreamPKv@Base 8.5.0
 _ZN17QtMetaTypePrivate23QMetaTypeFunctionHelperI6AkFracLb1EE8DestructEPv@Base 8.5.0
 _ZN17QtMetaTypePrivate23QMetaTypeFunctionHelperI6AkFracLb1EE9ConstructEPvPKv@Base 8.5.0
 _ZN17QtMetaTypePrivate23QMetaTypeFunctionHelperI6QColorLb1EE8DestructEPv@Base 8.5.0
 _ZN17QtMetaTypePrivate23QMetaTypeFunctionHelperI6QColorLb1EE9ConstructEPvPKv@Base 8.5.0
 _ZN17QtMetaTypePrivate23QMetaTypeFunctionHelperI8AkPacketLb1EE8DestructEPv@Base 8.5.0
 _ZN17QtMetaTypePrivate23QMetaTypeFunctionHelperI8AkPacketLb1EE9ConstructEPvPKv@Base 8.5.0
 _ZN17QtMetaTypePrivate23QMetaTypeFunctionHelperIN11AkAudioCaps10SampleTypeELb1EE8DestructEPv@Base 8.5.0
 _ZN17QtMetaTypePrivate23QMetaTypeFunctionHelperIN11AkAudioCaps10SampleTypeELb1EE9ConstructEPvPKv@Base 8.5.0
 _ZN17QtMetaTypePrivate23QMetaTypeFunctionHelperIN11AkAudioCaps12SampleFormatELb1EE8DestructEPv@Base 8.5.0
 _ZN17QtMetaTypePrivate23QMetaTypeFunctionHelperIN11AkAudioCaps12SampleFormatELb1EE9ConstructEPvPKv@Base 8.5.0
 _ZN17QtMetaTypePrivate23QMetaTypeFunctionHelperIN11AkAudioCaps13ChannelLayoutELb1EE8DestructEPv@Base 8.5.0
 _ZN17QtMetaTypePrivate23QMetaTypeFunctionHelperIN11AkAudioCaps13ChannelLayoutELb1EE9ConstructEPvPKv@Base 8.5.0
 _ZN17QtMetaTypePrivate23QMetaTypeFunctionHelperIN11AkVideoCaps11PixelFormatELb1EE8DestructEPv@Base 8.5.0
 _ZN17QtMetaTypePrivate23QMetaTypeFunctionHelperIN11AkVideoCaps11PixelFormatELb1EE9ConstructEPvPKv@Base 8.5.0
 _ZN17QtMetaTypePrivate23QMetaTypeFunctionHelperIN6AkCaps8CapsTypeELb1EE8DestructEPv@Base 8.5.0
 _ZN17QtMetaTypePrivate23QMetaTypeFunctionHelperIN6AkCaps8CapsTypeELb1EE9ConstructEPvPKv@Base 8.5.0
 _ZN17QtMetaTypePrivate23QMetaTypeFunctionHelperIN9AkElement12ElementStateELb1EE4LoadER11QDataStreamPv@Base 8.5.0
 _ZN17QtMetaTypePrivate23QMetaTypeFunctionHelperIN9AkElement12ElementStateELb1EE4SaveER11QDataStreamPKv@Base 8.5.0
 _ZN17QtMetaTypePrivate23QMetaTypeFunctionHelperIN9AkElement12ElementStateELb1EE8DestructEPv@Base 8.5.0
 _ZN17QtMetaTypePrivate23QMetaTypeFunctionHelperIN9AkElement12ElementStateELb1EE9ConstructEPvPKv@Base 8.5.0
 _ZN17QtMetaTypePrivate23QMetaTypeFunctionHelperINS_23QSequentialIterableImplELb1EE8DestructEPv@Base 8.5.0
 _ZN17QtMetaTypePrivate23QMetaTypeFunctionHelperINS_23QSequentialIterableImplELb1EE9ConstructEPvPKv@Base 8.5.0
 _ZN17QtMetaTypePrivate23QMetaTypeFunctionHelperIjLb1EE8DestructEPv@Base 8.5.0
 _ZN17QtMetaTypePrivate23QMetaTypeFunctionHelperIjLb1EE9ConstructEPvPKv@Base 8.5.0
 _ZN17QtMetaTypePrivate23QSequentialIterableImpl13moveToEndImplI5QListIiEEEvPKvPPv@Base 8.5.0
 _ZN17QtMetaTypePrivate23QSequentialIterableImpl15moveToBeginImplI5QListIiEEEvPKvPPv@Base 8.5.0
 _ZN17QtMetaTypePrivate23QSequentialIterableImpl6atImplI5QListIiEEEPKvS5_i@Base 8.5.0
 _ZN17QtMetaTypePrivate23QSequentialIterableImpl7getImplI5QListIiEEENS_11VariantDataEPKPvij@Base 8.5.0
 _ZN17QtMetaTypePrivate23QSequentialIterableImpl8sizeImplI5QListIiEEEiPKv@Base 8.5.0
 _ZN19AkPluginInfoPrivateD1Ev@Base 8.5.0
 _ZN19AkPluginInfoPrivateD2Ev@Base 8.5.0
 _ZN25AkMultimediaSourceElement10resetMediaEv@Base 8.5.0
 _ZN25AkMultimediaSourceElement10setStreamsERK5QListIiE@Base 8.5.0
 _ZN25AkMultimediaSourceElement11descriptionERK7QString@Base 8.5.0
 _ZN25AkMultimediaSourceElement11qt_metacallEN11QMetaObject4CallEiPPv@Base 8.5.0
 _ZN25AkMultimediaSourceElement11qt_metacastEPKc@Base 8.5.0
 _ZN25AkMultimediaSourceElement12resetStreamsEv@Base 8.5.0
 _ZN25AkMultimediaSourceElement13defaultStreamERK7QString@Base 8.5.0
 _ZN25AkMultimediaSourceElement16staticMetaObjectE@Base 8.5.0
 _ZN25AkMultimediaSourceElement4capsEi@Base 8.5.0
 _ZN25AkMultimediaSourceElement6mediasEv@Base 8.5.0
 _ZN25AkMultimediaSourceElement7setLoopEb@Base 8.5.0
 _ZN25AkMultimediaSourceElement7streamsEv@Base 8.5.0
 _ZN25AkMultimediaSourceElement8setMediaERK7QString@Base 8.5.0
 _ZN25AkMultimediaSourceElement9resetLoopEv@Base 8.5.0
 _ZN25AkMultimediaSourceElementC1EP7QObject@Base 8.5.0
 _ZN25AkMultimediaSourceElementC2EP7QObject@Base 8.5.0
 _ZN25AkMultimediaSourceElementD0Ev@Base 8.5.0
 _ZN25AkMultimediaSourceElementD1Ev@Base 8.5.0
 _ZN25AkMultimediaSourceElementD2Ev@Base 8.5.0
 _ZN2Ak12setQmlEngineEP10QQmlEngine@Base 8.5.0
 _ZN2Ak16addQmlImportPathERK7QString@Base 8.5.0
 _ZN2Ak17qmlImportPathListEv@Base 8.5.0
 _ZN2Ak20setQmlImportPathListERK11QStringList@Base 8.5.0
 _ZN2Ak22resetQmlImportPathListEv@Base 8.5.0
 _ZN2Ak2idEv@Base 8.5.0
 _ZN4QMapI7QString8QVariantE13detach_helperEv@Base 8.5.0
 _ZN4QMapI7QString8QVariantEC1ERKS2_@Base 8.5.0
 _ZN4QMapI7QString8QVariantEC2ERKS2_@Base 8.5.0
 _ZN4QMapI7QString8QVariantED1Ev@Base 8.5.0
 _ZN4QMapI7QString8QVariantED2Ev@Base 8.5.0
 _ZN5QListI10QByteArrayE13detach_helperEi@Base 8.5.0
 _ZN5QListI10QByteArrayED1Ev@Base 8.5.0
 _ZN5QListI10QByteArrayED2Ev@Base 8.5.0
 _ZN5QListI11QMetaMethodE13detach_helperEi@Base 8.5.0
 _ZN5QListI11QMetaMethodE18detach_helper_growEii@Base 8.5.0
 _ZN5QListI11QMetaMethodE6appendERKS0_@Base 8.5.0
 _ZN5QListI11QMetaMethodED1Ev@Base 8.5.0
 _ZN5QListI11QMetaMethodED2Ev@Base 8.5.0
 _ZN5QListI19AkPluginInfoPrivateE13detach_helperEi@Base 8.5.0
 _ZN5QListI19AkPluginInfoPrivateE18detach_helper_growEii@Base 8.5.0
 _ZN5QListI19AkPluginInfoPrivateE6appendERKS0_@Base 8.5.0
 _ZN5QListI19AkPluginInfoPrivateED1Ev@Base 8.5.0
 _ZN5QListI19AkPluginInfoPrivateED2Ev@Base 8.5.0
 _ZN5QListI7QStringE13detach_helperEi@Base 8.5.0
 _ZN5QListI7QStringE18detach_helper_growEii@Base 8.5.0
 _ZN5QListI7QStringE5clearEv@Base 8.5.0
 _ZN5QListI7QStringE6appendERKS0_@Base 8.5.0
 _ZN5QListI7QStringE6detachEv@Base 8.5.0
 _ZN5QListI7QStringEC1ERKS1_@Base 8.5.0
 _ZN5QListI7QStringEC2ERKS1_@Base 8.5.0
 _ZN5QListI7QStringED1Ev@Base 8.5.0
 _ZN5QListI7QStringED2Ev@Base 8.5.0
 _ZN5QListI7QStringEpLERKS1_@Base 8.5.0
 _ZN5QListIN11AkVideoCaps11PixelFormatEE13detach_helperEi@Base 8.5.0
 _ZN5QListIN11AkVideoCaps11PixelFormatEE18detach_helper_growEii@Base 8.5.0
 _ZN5QListIN11AkVideoCaps11PixelFormatEE6appendERKS1_@Base 8.5.0
 _ZN5QListIN11AkVideoCaps11PixelFormatEED1Ev@Base 8.5.0
 _ZN5QListIN11AkVideoCaps11PixelFormatEED2Ev@Base 8.5.0
 _ZN5QListIiEC1ERKS0_@Base 8.5.0
 _ZN5QListIiEC2ERKS0_@Base 8.5.0
 _ZN5QListIiED1Ev@Base 8.5.0
 _ZN5QListIiED2Ev@Base 8.5.0
 _ZN6AkCaps10fromStringERK7QString@Base 8.5.0
 _ZN6AkCaps11qt_metacallEN11QMetaObject4CallEiPPv@Base 8.5.0
 _ZN6AkCaps11qt_metacastEPKc@Base 8.5.0
 _ZN6AkCaps11setMimeTypeERK7QString@Base 8.5.0
 _ZN6AkCaps13resetMimeTypeEv@Base 8.5.0
 _ZN6AkCaps15mimeTypeChangedERK7QString@Base 8.5.0
 _ZN6AkCaps16staticMetaObjectE@Base 8.5.0
 _ZN6AkCaps5clearEv@Base 8.5.0
 _ZN6AkCaps6updateERKS_@Base 8.5.0
 _ZN6AkCaps7fromMapERK4QMapI7QString8QVariantE@Base 8.5.0
 _ZN6AkCaps7isValidEv@Base 8.5.0
 _ZN6AkCapsC1EP7QObject@Base 8.5.0
 _ZN6AkCapsC1ERK4QMapI7QString8QVariantE@Base 8.5.0
 _ZN6AkCapsC1ERK7QString@Base 8.5.0
 _ZN6AkCapsC1ERKS_@Base 8.5.0
 _ZN6AkCapsC2EP7QObject@Base 8.5.0
 _ZN6AkCapsC2ERK4QMapI7QString8QVariantE@Base 8.5.0
 _ZN6AkCapsC2ERK7QString@Base 8.5.0
 _ZN6AkCapsC2ERKS_@Base 8.5.0
 _ZN6AkCapsD0Ev@Base 8.5.0
 _ZN6AkCapsD1Ev@Base 8.5.0
 _ZN6AkCapsD2Ev@Base 8.5.0
 _ZN6AkCapsaSERK7QString@Base 8.5.0
 _ZN6AkCapsaSERKS_@Base 8.5.0
 _ZN6AkFrac10denChangedEv@Base 8.5.0
 _ZN6AkFrac10numChangedEv@Base 8.5.0
 _ZN6AkFrac11qt_metacallEN11QMetaObject4CallEiPPv@Base 8.5.0
 _ZN6AkFrac11qt_metacastEPKc@Base 8.5.0
 _ZN6AkFrac12valueChangedEv@Base 8.5.0
 _ZN6AkFrac13stringChangedEv@Base 8.5.0
 _ZN6AkFrac14isValidChangedEv@Base 8.5.0
 _ZN6AkFrac16staticMetaObjectE@Base 8.5.0
 _ZN6AkFrac6setDenEx@Base 8.5.0
 _ZN6AkFrac6setNumEx@Base 8.5.0
 _ZN6AkFrac8resetDenEv@Base 8.5.0
 _ZN6AkFrac8resetNumEv@Base 8.5.0
 _ZN6AkFrac9setNumDenERK7QString@Base 8.5.0
 _ZN6AkFrac9setNumDenExx@Base 8.5.0
 _ZN6AkFracC1EP7QObject@Base 8.5.0
 _ZN6AkFracC1ERK7QString@Base 8.5.0
 _ZN6AkFracC1ERKS_@Base 8.5.0
 _ZN6AkFracC1Exx@Base 8.5.0
 _ZN6AkFracC2EP7QObject@Base 8.5.0
 _ZN6AkFracC2ERK7QString@Base 8.5.0
 _ZN6AkFracC2ERKS_@Base 8.5.0
 _ZN6AkFracC2Exx@Base 8.5.0
 _ZN6AkFracD0Ev@Base 8.5.0
 _ZN6AkFracD1Ev@Base 8.5.0
 _ZN6AkFracD2Ev@Base 8.5.0
 _ZN6AkFracaSERKS_@Base 8.5.0
 _ZN7QStringC1EPKc@Base 8.5.0
 _ZN7QStringC2EPKc@Base 8.5.0
 _ZN7QStringD1Ev@Base 8.5.0
 _ZN7QStringD2Ev@Base 8.5.0
 _ZN7QVectorI11VideoFormatED1Ev@Base 8.5.0
 _ZN7QVectorI11VideoFormatED2Ev@Base 8.5.0
 _ZN7QVectorI13SampleFormatsED1Ev@Base 8.5.0
 _ZN7QVectorI13SampleFormatsED2Ev@Base 8.5.0
 _ZN7QVectorI14ChannelLayoutsED1Ev@Base 8.5.0
 _ZN7QVectorI14ChannelLayoutsED2Ev@Base 8.5.0
 _ZN7QVectorIP11QStringListE11reallocDataEii6QFlagsIN10QArrayData16AllocationOptionEE@Base 8.5.0
 _ZN8AkPacket10ptsChangedEx@Base 8.5.0
 _ZN8AkPacket10resetIndexEv@Base 8.5.0
 _ZN8AkPacket11capsChangedERK6AkCaps@Base 8.5.0
 _ZN8AkPacket11dataChangedERK8QVariant@Base 8.5.0
 _ZN8AkPacket11qt_metacallEN11QMetaObject4CallEiPPv@Base 8.5.0
 _ZN8AkPacket11qt_metacastEPKc@Base 8.5.0
 _ZN8AkPacket11resetBufferEv@Base 8.5.0
 _ZN8AkPacket11setTimeBaseERK6AkFrac@Base 8.5.0
 _ZN8AkPacket12indexChangedEi@Base 8.5.0
 _ZN8AkPacket13bufferChangedERK10QByteArray@Base 8.5.0
 _ZN8AkPacket13resetTimeBaseEv@Base 8.5.0
 _ZN8AkPacket15timeBaseChangedERK6AkFrac@Base 8.5.0
 _ZN8AkPacket16staticMetaObjectE@Base 8.5.0
 _ZN8AkPacket2idEv@Base 8.5.0
 _ZN8AkPacket3ptsEv@Base 8.5.0
 _ZN8AkPacket4capsEv@Base 8.5.0
 _ZN8AkPacket4dataEv@Base 8.5.0
 _ZN8AkPacket5indexEv@Base 8.5.0
 _ZN8AkPacket5setIdEx@Base 8.5.0
 _ZN8AkPacket6bufferEv@Base 8.5.0
 _ZN8AkPacket6setPtsEx@Base 8.5.0
 _ZN8AkPacket7resetIdEv@Base 8.5.0
 _ZN8AkPacket7setCapsERK6AkCaps@Base 8.5.0
 _ZN8AkPacket7setDataERK8QVariant@Base 8.5.0
 _ZN8AkPacket8resetPtsEv@Base 8.5.0
 _ZN8AkPacket8setIndexEi@Base 8.5.0
 _ZN8AkPacket8timeBaseEv@Base 8.5.0
 _ZN8AkPacket9idChangedEx@Base 8.5.0
 _ZN8AkPacket9resetCapsEv@Base 8.5.0
 _ZN8AkPacket9resetDataEv@Base 8.5.0
 _ZN8AkPacket9setBufferERK10QByteArray@Base 8.5.0
 _ZN8AkPacketC1EP7QObject@Base 8.5.0
 _ZN8AkPacketC1ERK6AkCapsRK10QByteArrayxRK6AkFracix@Base 8.5.0
 _ZN8AkPacketC1ERKS_@Base 8.5.0
 _ZN8AkPacketC2EP7QObject@Base 8.5.0
 _ZN8AkPacketC2ERK6AkCapsRK10QByteArrayxRK6AkFracix@Base 8.5.0
 _ZN8AkPacketC2ERKS_@Base 8.5.0
 _ZN8AkPacketD0Ev@Base 8.5.0
 _ZN8AkPacketD1Ev@Base 8.5.0
 _ZN8AkPacketD2Ev@Base 8.5.0
 _ZN8AkPacketaSERKS_@Base 8.5.0
 _ZN8QMapNodeI7QString8QVariantE14destroySubTreeEv@Base 8.5.0
 _ZN9AkElement10clearCacheEv@Base 8.5.0
 _ZN9AkElement10pluginInfoERK7QString@Base 8.5.0
 _ZN9AkElement10pluginPathERK7QString@Base 8.5.0
 _ZN9AkElement10resetStateEv@Base 8.5.0
 _ZN9AkElement11listPluginsERK7QString@Base 8.5.0
 _ZN9AkElement11qt_metacallEN11QMetaObject4CallEiPPv@Base 8.5.0
 _ZN9AkElement11qt_metacastEPKc@Base 8.5.0
 _ZN9AkElement11searchPathsEv@Base 8.5.0
 _ZN9AkElement11stateChangeENS_12ElementStateES0_@Base 8.5.0
 _ZN9AkElement12stateChangedENS_12ElementStateE@Base 8.5.0
 _ZN9AkElement13addSearchPathERK7QString@Base 8.5.0
 _ZN9AkElement13loadSubModuleERK7QString@Base 8.5.0
 _ZN9AkElement13loadSubModuleERK7QStringS2_@Base 8.5.0
 _ZN9AkElement13setPluginInfoERK7QStringRK4QMapIS0_8QVariantE@Base 8.5.0
 _ZN9AkElement14listSubModulesERK11QStringList@Base 8.5.0
 _ZN9AkElement14listSubModulesERK7QStringS2_@Base 8.5.0
 _ZN9AkElement14setPluginPathsERK11QStringList@Base 8.5.0
 _ZN9AkElement14setSearchPathsERK11QStringList@Base 8.5.0
 _ZN9AkElement14subModulesPathEv@Base 8.5.0
 _ZN9AkElement15listPluginPathsERK7QString@Base 8.5.0
 _ZN9AkElement15listPluginPathsEb@Base 8.5.0
 _ZN9AkElement15recursiveSearchEv@Base 8.5.0
 _ZN9AkElement16pluginsBlackListEv@Base 8.5.0
 _ZN9AkElement16resetSearchPathsEv@Base 8.5.0
 _ZN9AkElement16staticMetaObjectE@Base 8.5.0
 _ZN9AkElement17setSubModulesPathERK7QString@Base 8.5.0
 _ZN9AkElement18setRecursiveSearchEb@Base 8.5.0
 _ZN9AkElement19listSubModulesPathsERK7QString@Base 8.5.0
 _ZN9AkElement19listSubModulesPathsEv@Base 8.5.0
 _ZN9AkElement19resetSubModulesPathEv@Base 8.5.0
 _ZN9AkElement19setPluginsBlackListERK11QStringList@Base 8.5.0
 _ZN9AkElement4linkEPK7QObjectS2_N2Qt14ConnectionTypeE@Base 8.5.0
 _ZN9AkElement4linkERK14QSharedPointerIS_EPK7QObjectN2Qt14ConnectionTypeE@Base 8.5.0
 _ZN9AkElement4linkERK14QSharedPointerIS_ES3_N2Qt14ConnectionTypeE@Base 8.5.0
 _ZN9AkElement6createERK7QStringS2_@Base 8.5.0
 _ZN9AkElement6unlinkEPK7QObjectS2_@Base 8.5.0
 _ZN9AkElement6unlinkERK14QSharedPointerIS_EPK7QObject@Base 8.5.0
 _ZN9AkElement6unlinkERK14QSharedPointerIS_ES3_@Base 8.5.0
 _ZN9AkElement7iStreamERK13AkAudioPacket@Base 8.5.0
 _ZN9AkElement7iStreamERK13AkVideoPacket@Base 8.5.0
 _ZN9AkElement7iStreamERK8AkPacket@Base 8.5.0
 _ZN9AkElement7oStreamERK8AkPacket@Base 8.5.0
 _ZN9AkElement8pluginIdERK7QString@Base 8.5.0
 _ZN9AkElement8setStateENS_12ElementStateE@Base 8.5.0
 _ZN9AkElement9createPtrERK7QStringS2_@Base 8.5.0
 _ZN9AkElementC1EP7QObject@Base 8.5.0
 _ZN9AkElementC2EP7QObject@Base 8.5.0
 _ZN9AkElementD0Ev@Base 8.5.0
 _ZN9AkElementD1Ev@Base 8.5.0
 _ZN9AkElementD2Ev@Base 8.5.0
 _ZN9AkElementclERK13AkAudioPacket@Base 8.5.0
 _ZN9AkElementclERK13AkVideoPacket@Base 8.5.0
 _ZN9AkElementclERK8AkPacket@Base 8.5.0
 _ZN9AkPrivateC1Ev@Base 8.5.0
 _ZN9AkPrivateC2Ev@Base 8.5.0
 _ZN9AkPrivateD0Ev@Base 8.5.0
 _ZN9AkPrivateD1Ev@Base 8.5.0
 _ZN9AkPrivateD2Ev@Base 8.5.0
 _ZN9QtPrivate16ConverterFunctorI14QSharedPointerI9AkElementEP7QObjectNS_27QSmartPointerConvertFunctorIS3_EEE7convertEPKNS_25AbstractConverterFunctionEPKvPv@Base 8.5.0
 _ZN9QtPrivate16ConverterFunctorI14QSharedPointerI9AkElementEP7QObjectNS_27QSmartPointerConvertFunctorIS3_EEED1Ev@Base 8.5.0
 _ZN9QtPrivate16ConverterFunctorI14QSharedPointerI9AkElementEP7QObjectNS_27QSmartPointerConvertFunctorIS3_EEED2Ev@Base 8.5.0
 _ZN9QtPrivate16ConverterFunctorI5QListIiEN17QtMetaTypePrivate23QSequentialIterableImplENS3_33QSequentialIterableConvertFunctorIS2_EEE7convertEPKNS_25AbstractConverterFunctionEPKvPv@Base 8.5.0
 _ZN9QtPrivate16ConverterFunctorI5QListIiEN17QtMetaTypePrivate23QSequentialIterableImplENS3_33QSequentialIterableConvertFunctorIS2_EEED1Ev@Base 8.5.0
 _ZN9QtPrivate16ConverterFunctorI5QListIiEN17QtMetaTypePrivate23QSequentialIterableImplENS3_33QSequentialIterableConvertFunctorIS2_EEED2Ev@Base 8.5.0
 _ZN9QtPrivate8RefCount3refEv@Base 8.5.0
 _ZNK11AkAudioCaps10metaObjectEv@Base 8.5.0
 _ZNK11AkAudioCaps3bpsEv@Base 8.5.0
 _ZNK11AkAudioCaps4rateEv@Base 8.5.0
 _ZNK11AkAudioCaps5alignEv@Base 8.5.0
 _ZNK11AkAudioCaps5toMapEv@Base 8.5.0
 _ZNK11AkAudioCaps6formatEv@Base 8.5.0
 _ZNK11AkAudioCaps6layoutEv@Base 8.5.0
 _ZNK11AkAudioCaps6toCapsEv@Base 8.5.0
 _ZNK11AkAudioCaps7isValidEv@Base 8.5.0
 _ZNK11AkAudioCaps7samplesEv@Base 8.5.0
 _ZNK11AkAudioCaps8channelsEv@Base 8.5.0
 _ZNK11AkAudioCaps8toStringEv@Base 8.5.0
 _ZNK11AkAudioCapscv6AkCapsEv@Base 8.5.0
 _ZNK11AkAudioCapscvbEv@Base 8.5.0
 _ZNK11AkAudioCapseqERKS_@Base 8.5.0
 _ZNK11AkAudioCapsneERKS_@Base 8.5.0
 _ZNK11AkVideoCaps10metaObjectEv@Base 8.5.0
 _ZNK11AkVideoCaps11pictureSizeEv@Base 8.5.0
 _ZNK11AkVideoCaps3bppEv@Base 8.5.0
 _ZNK11AkVideoCaps3fpsEv@Base 8.5.0
 _ZNK11AkVideoCaps4sizeEv@Base 8.5.0
 _ZNK11AkVideoCaps5toMapEv@Base 8.5.0
 _ZNK11AkVideoCaps5widthEv@Base 8.5.0
 _ZNK11AkVideoCaps6formatEv@Base 8.5.0
 _ZNK11AkVideoCaps6fourCCEv@Base 8.5.0
 _ZNK11AkVideoCaps6heightEv@Base 8.5.0
 _ZNK11AkVideoCaps6toCapsEv@Base 8.5.0
 _ZNK11AkVideoCaps7isValidEv@Base 8.5.0
 _ZNK11AkVideoCaps8toStringEv@Base 8.5.0
 _ZNK11AkVideoCapscv6AkCapsEv@Base 8.5.0
 _ZNK11AkVideoCapscvbEv@Base 8.5.0
 _ZNK11AkVideoCapseqERKS_@Base 8.5.0
 _ZNK11AkVideoCapsneERKS_@Base 8.5.0
 _ZNK13AkAudioPacket10metaObjectEv@Base 8.5.0
 _ZNK13AkAudioPacket4capsEv@Base 8.5.0
 _ZNK13AkAudioPacket8toPacketEv@Base 8.5.0
 _ZNK13AkAudioPacket8toStringEv@Base 8.5.0
 _ZNK13AkAudioPacketcvbEv@Base 8.5.0
 _ZNK13AkVideoPacket10metaObjectEv@Base 8.5.0
 _ZNK13AkVideoPacket11roundSizeToEi@Base 8.5.0
 _ZNK13AkVideoPacket4capsEv@Base 8.5.0
 _ZNK13AkVideoPacket7convertEN11AkVideoCaps11PixelFormatERK5QSize@Base 8.5.0
 _ZNK13AkVideoPacket7toImageEv@Base 8.5.0
 _ZNK13AkVideoPacket8toPacketEv@Base 8.5.0
 _ZNK13AkVideoPacket8toStringEv@Base 8.5.0
 _ZNK13AkVideoPacketcvbEv@Base 8.5.0
 _ZNK16AkElementPrivate17convertToAbsoluteERK7QString@Base 8.5.0
 _ZNK25AkMultimediaSourceElement10metaObjectEv@Base 8.5.0
 _ZNK25AkMultimediaSourceElement4loopEv@Base 8.5.0
 _ZNK25AkMultimediaSourceElement5mediaEv@Base 8.5.0
 _ZNK4QMapIN6QImage6FormatEN11AkVideoCaps11PixelFormatEE3keyERKS3_RKS1_@Base 8.5.0
 _ZNK4QMapIN6QImage6FormatEN11AkVideoCaps11PixelFormatEE6valuesEv@Base 8.5.0
 _ZNK6AkCaps10metaObjectEv@Base 8.5.0
 _ZNK6AkCaps12isCompatibleERKS_@Base 8.5.0
 _ZNK6AkCaps5toMapEv@Base 8.5.0
 _ZNK6AkCaps7isValidEv@Base 8.5.0
 _ZNK6AkCaps8containsERK7QString@Base 8.5.0
 _ZNK6AkCaps8mimeTypeEv@Base 8.5.0
 _ZNK6AkCaps8toStringEv@Base 8.5.0
 _ZNK6AkCapscvbEv@Base 8.5.0
 _ZNK6AkCapseqERK7QString@Base 8.5.0
 _ZNK6AkCapseqERKS_@Base 8.5.0
 _ZNK6AkCapsneERK7QString@Base 8.5.0
 _ZNK6AkCapsneERKS_@Base 8.5.0
 _ZNK6AkFrac10metaObjectEv@Base 8.5.0
 _ZNK6AkFrac3denEv@Base 8.5.0
 _ZNK6AkFrac3numEv@Base 8.5.0
 _ZNK6AkFrac5valueEv@Base 8.5.0
 _ZNK6AkFrac6invertEv@Base 8.5.0
 _ZNK6AkFrac7isValidEv@Base 8.5.0
 _ZNK6AkFrac8toStringEv@Base 8.5.0
 _ZNK6AkFrac9fastValueEv@Base 8.5.0
 _ZNK6AkFraceqERKS_@Base 8.5.0
 _ZNK6AkFracmlERKS_@Base 8.5.0
 _ZNK6AkFracneERKS_@Base 8.5.0
 _ZNK8AkPacket10metaObjectEv@Base 8.5.0
 _ZNK8AkPacket2idEv@Base 8.5.0
 _ZNK8AkPacket3ptsEv@Base 8.5.0
 _ZNK8AkPacket4capsEv@Base 8.5.0
 _ZNK8AkPacket4dataEv@Base 8.5.0
 _ZNK8AkPacket5indexEv@Base 8.5.0
 _ZNK8AkPacket6bufferEv@Base 8.5.0
 _ZNK8AkPacket8timeBaseEv@Base 8.5.0
 _ZNK8AkPacket8toStringEv@Base 8.5.0
 _ZNK8AkPacketcvbEv@Base 8.5.0
 _ZNK8QMapDataI7QString8QVariantE8findNodeERKS0_@Base 8.5.0
 _ZNK8QMapNodeI7QString8QVariantE4copyEP8QMapDataIS0_S1_E@Base 8.5.0
 _ZNK8QMapNodeIN6QImage6FormatEN11AkVideoCaps11PixelFormatEE4copyEP8QMapDataIS1_S3_E@Base 8.5.0
 _ZNK9AkElement10metaObjectEv@Base 8.5.0
 _ZNK9AkElement10pluginPathEv@Base 8.5.0
 _ZNK9AkElement16controlInterfaceEP10QQmlEngineRK7QString@Base 8.5.0
 _ZNK9AkElement23controlInterfaceProvideERK7QString@Base 8.5.0
 _ZNK9AkElement25controlInterfaceConfigureEP11QQmlContextRK7QString@Base 8.5.0
 _ZNK9AkElement4linkEPK7QObjectN2Qt14ConnectionTypeE@Base 8.5.0
 _ZNK9AkElement4linkERK14QSharedPointerIS_EN2Qt14ConnectionTypeE@Base 8.5.0
 _ZNK9AkElement5stateEv@Base 8.5.0
 _ZNK9AkElement6unlinkEPK7QObject@Base 8.5.0
 _ZNK9AkElement6unlinkERK14QSharedPointerIS_E@Base 8.5.0
 _ZNK9AkElement8pluginIdEv@Base 8.5.0
 _ZNK9AkPrivate14qmlImportPathsEv@Base 8.5.0
 _ZNK9AkPrivate17convertToAbsoluteERK7QString@Base 8.5.0
 _ZSt9__find_ifIPK10QByteArrayN9__gnu_cxx5__ops16_Iter_equals_valIS1_EEET_S7_S7_T0_St26random_access_iterator_tag@Base 8.5.0
 _ZTI11AkAudioCaps@Base 8.5.0
 _ZTI11AkVideoCaps@Base 8.5.0
 _ZTI13AkAudioPacket@Base 8.5.0
 _ZTI13AkVideoPacket@Base 8.5.0
 _ZTI25AkMultimediaSourceElement@Base 8.5.0
 _ZTI6AkCaps@Base 8.5.0
 _ZTI6AkFrac@Base 8.5.0
 _ZTI8AkPacket@Base 8.5.0
 _ZTI9AkElement@Base 8.5.0
 _ZTI9AkPrivate@Base 8.5.0
 _ZTS11AkAudioCaps@Base 8.5.0
 _ZTS11AkVideoCaps@Base 8.5.0
 _ZTS13AkAudioPacket@Base 8.5.0
 _ZTS13AkVideoPacket@Base 8.5.0
 _ZTS25AkMultimediaSourceElement@Base 8.5.0
 _ZTS6AkCaps@Base 8.5.0
 _ZTS6AkFrac@Base 8.5.0
 _ZTS8AkPacket@Base 8.5.0
 _ZTS9AkElement@Base 8.5.0
 _ZTS9AkPrivate@Base 8.5.0
 _ZTV11AkAudioCaps@Base 8.5.0
 _ZTV11AkVideoCaps@Base 8.5.0
 _ZTV13AkAudioPacket@Base 8.5.0
 _ZTV13AkVideoPacket@Base 8.5.0
 _ZTV25AkMultimediaSourceElement@Base 8.5.0
 _ZTV6AkCaps@Base 8.5.0
 _ZTV6AkFrac@Base 8.5.0
 _ZTV8AkPacket@Base 8.5.0
 _ZTV9AkElement@Base 8.5.0
 _ZTV9AkPrivate@Base 8.5.0
 _ZZN11QMetaTypeIdI11AkAudioCapsE14qt_metatype_idEvE11metatype_id@Base 8.5.0
 _ZZN11QMetaTypeIdI11AkVideoCapsE14qt_metatype_idEvE11metatype_id@Base 8.5.0
 _ZZN11QMetaTypeIdI13AkVideoPacketE14qt_metatype_idEvE11metatype_id@Base 8.5.0
 _ZZN11QMetaTypeIdI5QListIiEE14qt_metatype_idEvE11metatype_id@Base 8.5.0
 _ZZN11QMetaTypeIdI6AkCapsE14qt_metatype_idEvE11metatype_id@Base 8.5.0
 _ZZN11QMetaTypeIdI6AkFracE14qt_metatype_idEvE11metatype_id@Base 8.5.0
 _ZZN11QMetaTypeIdI8AkPacketE14qt_metatype_idEvE11metatype_id@Base 8.5.0
 _ZZN11QMetaTypeIdIN11AkAudioCaps12SampleFormatEE14qt_metatype_idEvE11metatype_id@Base 8.5.0
 _ZZN11QMetaTypeIdIN11AkAudioCaps13ChannelLayoutEE14qt_metatype_idEvE11metatype_id@Base 8.5.0
 _ZZN11QMetaTypeIdIN11AkVideoCaps11PixelFormatEE14qt_metatype_idEvE11metatype_id@Base 8.5.0
 _ZZN11QMetaTypeIdIN17QtMetaTypePrivate23QSequentialIterableImplEE14qt_metatype_idEvE11metatype_id@Base 8.5.0
 _ZZN11QMetaTypeIdIN6AkCaps8CapsTypeEE14qt_metatype_idEvE11metatype_id@Base 8.5.0
 _ZZN11QMetaTypeIdIN9AkElement12ElementStateEE14qt_metatype_idEvE11metatype_id@Base 8.5.0
 _ZZN11VideoFormat7formatsEvE12videoFormats@Base 8.5.0
 _ZZN13SampleFormats7formatsEvE13sampleFormats@Base 8.5.0
 _ZZN14ChannelLayouts7layoutsEvE14channelLayouts@Base 8.5.0
 _ZZN9QtPrivate19ValueTypeIsMetaTypeI5QListIiELb1EE17registerConverterEiE1f@Base 8.5.0
 _ZZN9QtPrivate26MetaTypeSmartPointerHelperI14QSharedPointerI9AkElementEvE17registerConverterEiE1f@Base 8.5.0
 _ZZN9QtPrivate29SharedPointerMetaTypeIdHelperI14QSharedPointerI9AkElementELb1EE14qt_metatype_idEvE11metatype_id@Base 8.5.0
 _ZdvRK6AkFracS1_@Base 8.5.0
 _ZdviRK6AkFrac@Base 8.5.0
 _Zls6QDebugRK11AkAudioCaps@Base 8.5.0
 _Zls6QDebugRK11AkVideoCaps@Base 8.5.0
 _Zls6QDebugRK13AkAudioPacket@Base 8.5.0
 _Zls6QDebugRK13AkVideoPacket@Base 8.5.0
 _Zls6QDebugRK6AkCaps@Base 8.5.0
 _Zls6QDebugRK6AkFrac@Base 8.5.0
 _Zls6QDebugRK8AkPacket@Base 8.5.0
 _ZlsR11QDataStreamN9AkElement12ElementStateE@Base 8.5.0
 _ZlsR11QDataStreamRK11AkAudioCaps@Base 8.5.0
 _ZlsR11QDataStreamRK11AkVideoCaps@Base 8.5.0
 _ZlsR11QDataStreamRK6AkCaps@Base 8.5.0
 _ZlsR11QDataStreamRK6AkFrac@Base 8.5.0
 _ZmiRK6AkFracS1_@Base 8.5.0
 _ZmliRK6AkFrac@Base 8.5.0
 _ZplRK6AkFracS1_@Base 8.5.0
 _ZrsR11QDataStreamR11AkAudioCaps@Base 8.5.0
 _ZrsR11QDataStreamR11AkVideoCaps@Base 8.5.0
 _ZrsR11QDataStreamR6AkCaps@Base 8.5.0
 _ZrsR11QDataStreamR6AkFrac@Base 8.5.0
 _ZrsR11QDataStreamRN9AkElement12ElementStateE@Base 8.5.0
