libavkys.so.7 libavkys7 #MINVER#
 _Z17qRegisterMetaTypeI11AkVideoCapsEiPKcPT_N9QtPrivate21MetaTypeDefinedHelperIS3_Xaasr12QMetaTypeId2IS3_E7DefinedntsrS8_9IsBuiltInEE11DefinedTypeE@Base 7.2.1
 _Z17qRegisterMetaTypeI6AkCapsEiPKcPT_N9QtPrivate21MetaTypeDefinedHelperIS3_Xaasr12QMetaTypeId2IS3_E7DefinedntsrS8_9IsBuiltInEE11DefinedTypeE@Base 7.2.1
 _Z17qRegisterMetaTypeI6AkFracEiPKcPT_N9QtPrivate21MetaTypeDefinedHelperIS3_Xaasr12QMetaTypeId2IS3_E7DefinedntsrS8_9IsBuiltInEE11DefinedTypeE@Base 7.2.1
 _Z17qRegisterMetaTypeI8AkPacketEiPKcPT_N9QtPrivate21MetaTypeDefinedHelperIS3_Xaasr12QMetaTypeId2IS3_E7DefinedntsrS8_9IsBuiltInEE11DefinedTypeE@Base 7.2.1
 _Z17qRegisterMetaTypeIN11AkAudioCaps12SampleFormatEEiPKcPT_N9QtPrivate21MetaTypeDefinedHelperIS4_Xaasr12QMetaTypeId2IS4_E7DefinedntsrS9_9IsBuiltInEE11DefinedTypeE@Base 7.2.1
 _Z17qRegisterMetaTypeIN9AkElement12ElementStateEEiPKcPT_N9QtPrivate21MetaTypeDefinedHelperIS4_Xaasr12QMetaTypeId2IS4_E7DefinedntsrS9_9IsBuiltInEE11DefinedTypeE@Base 7.2.1
 _Z19initChannelCountMapv@Base 7.2.1
 _Z20initBitsPerSampleMapv@Base 7.2.1
 _Z23initChannelLayoutStrMapv@Base 7.2.1
 _Z27qRegisterNormalizedMetaTypeI5QListIiEEiRK10QByteArrayPT_N9QtPrivate21MetaTypeDefinedHelperIS5_Xaasr12QMetaTypeId2IS5_E7DefinedntsrSA_9IsBuiltInEE11DefinedTypeE@Base 7.2.1
 _ZGVZN11VideoFormat7formatsEvE12videoFormats@Base 7.2.1
 _ZGVZN9QtPrivate19ValueTypeIsMetaTypeI5QListIiELb1EE17registerConverterEiE1f@Base 7.2.1
 _ZGVZN9QtPrivate26MetaTypeSmartPointerHelperI14QSharedPointerI9AkElementEvE17registerConverterEiE1f@Base 7.2.1
 _ZN10QByteArrayD1Ev@Base 7.2.1
 _ZN10QByteArrayD2Ev@Base 7.2.1
 _ZN11AkAudioCaps10bpsChangedEi@Base 7.2.1
 _ZN11AkAudioCaps10fromStringERK7QString@Base 7.2.1
 _ZN11AkAudioCaps10resetAlignEv@Base 7.2.1
 _ZN11AkAudioCaps10setSamplesEi@Base 7.2.1
 _ZN11AkAudioCaps11qt_metacallEN11QMetaObject4CallEiPPv@Base 7.2.1
 _ZN11AkAudioCaps11qt_metacastEPKc@Base 7.2.1
 _ZN11AkAudioCaps11rateChangedEi@Base 7.2.1
 _ZN11AkAudioCaps11resetFormatEv@Base 7.2.1
 _ZN11AkAudioCaps11resetLayoutEv@Base 7.2.1
 _ZN11AkAudioCaps11setChannelsEi@Base 7.2.1
 _ZN11AkAudioCaps12alignChangedEb@Base 7.2.1
 _ZN11AkAudioCaps12channelCountENS_13ChannelLayoutE@Base 7.2.1
 _ZN11AkAudioCaps12channelCountERK7QString@Base 7.2.1
 _ZN11AkAudioCaps12resetSamplesEv@Base 7.2.1
 _ZN11AkAudioCaps13bitsPerSampleENS_12SampleFormatE@Base 7.2.1
 _ZN11AkAudioCaps13bitsPerSampleERK7QString@Base 7.2.1
 _ZN11AkAudioCaps13formatChangedENS_12SampleFormatE@Base 7.2.1
 _ZN11AkAudioCaps13layoutChangedENS_13ChannelLayoutE@Base 7.2.1
 _ZN11AkAudioCaps13resetChannelsEv@Base 7.2.1
 _ZN11AkAudioCaps14samplesChangedEi@Base 7.2.1
 _ZN11AkAudioCaps15channelsChangedEi@Base 7.2.1
 _ZN11AkAudioCaps16staticMetaObjectE@Base 7.2.1
 _ZN11AkAudioCaps20defaultChannelLayoutEi@Base 7.2.1
 _ZN11AkAudioCaps20sampleFormatToStringENS_12SampleFormatE@Base 7.2.1
 _ZN11AkAudioCaps21channelLayoutToStringENS_13ChannelLayoutE@Base 7.2.1
 _ZN11AkAudioCaps22sampleFormatFromStringERK7QString@Base 7.2.1
 _ZN11AkAudioCaps23channelLayoutFromStringERK7QString@Base 7.2.1
 _ZN11AkAudioCaps26defaultChannelLayoutStringEi@Base 7.2.1
 _ZN11AkAudioCaps3bpsEv@Base 7.2.1
 _ZN11AkAudioCaps4rateEv@Base 7.2.1
 _ZN11AkAudioCaps5alignEv@Base 7.2.1
 _ZN11AkAudioCaps6formatEv@Base 7.2.1
 _ZN11AkAudioCaps6layoutEv@Base 7.2.1
 _ZN11AkAudioCaps6setBpsEi@Base 7.2.1
 _ZN11AkAudioCaps6updateERK6AkCaps@Base 7.2.1
 _ZN11AkAudioCaps7fromMapERK4QMapI7QString8QVariantE@Base 7.2.1
 _ZN11AkAudioCaps7isValidEv@Base 7.2.1
 _ZN11AkAudioCaps7samplesEv@Base 7.2.1
 _ZN11AkAudioCaps7setRateEi@Base 7.2.1
 _ZN11AkAudioCaps8channelsEv@Base 7.2.1
 _ZN11AkAudioCaps8resetBpsEv@Base 7.2.1
 _ZN11AkAudioCaps8setAlignEb@Base 7.2.1
 _ZN11AkAudioCaps9resetRateEv@Base 7.2.1
 _ZN11AkAudioCaps9setFormatENS_12SampleFormatE@Base 7.2.1
 _ZN11AkAudioCaps9setLayoutENS_13ChannelLayoutE@Base 7.2.1
 _ZN11AkAudioCapsC1EP7QObject@Base 7.2.1
 _ZN11AkAudioCapsC1ERK4QMapI7QString8QVariantE@Base 7.2.1
 _ZN11AkAudioCapsC1ERK6AkCaps@Base 7.2.1
 _ZN11AkAudioCapsC1ERK7QString@Base 7.2.1
 _ZN11AkAudioCapsC1ERKS_@Base 7.2.1
 _ZN11AkAudioCapsC2EP7QObject@Base 7.2.1
 _ZN11AkAudioCapsC2ERK4QMapI7QString8QVariantE@Base 7.2.1
 _ZN11AkAudioCapsC2ERK6AkCaps@Base 7.2.1
 _ZN11AkAudioCapsC2ERK7QString@Base 7.2.1
 _ZN11AkAudioCapsC2ERKS_@Base 7.2.1
 _ZN11AkAudioCapsD0Ev@Base 7.2.1
 _ZN11AkAudioCapsD1Ev@Base 7.2.1
 _ZN11AkAudioCapsD2Ev@Base 7.2.1
 _ZN11AkAudioCapsaSERK6AkCaps@Base 7.2.1
 _ZN11AkAudioCapsaSERK7QString@Base 7.2.1
 _ZN11AkAudioCapsaSERKS_@Base 7.2.1
 _ZN11AkVideoCaps10bppChangedEi@Base 7.2.1
 _ZN11AkVideoCaps10fpsChangedERK6AkFrac@Base 7.2.1
 _ZN11AkVideoCaps10fromStringERK7QString@Base 7.2.1
 _ZN11AkVideoCaps10resetWidthEv@Base 7.2.1
 _ZN11AkVideoCaps11qt_metacallEN11QMetaObject4CallEiPPv@Base 7.2.1
 _ZN11AkVideoCaps11qt_metacastEPKc@Base 7.2.1
 _ZN11AkVideoCaps11resetFormatEv@Base 7.2.1
 _ZN11AkVideoCaps11resetHeightEv@Base 7.2.1
 _ZN11AkVideoCaps11sizeChangedERK5QSize@Base 7.2.1
 _ZN11AkVideoCaps12bitsPerPixelENS_11PixelFormatE@Base 7.2.1
 _ZN11AkVideoCaps12bitsPerPixelERK7QString@Base 7.2.1
 _ZN11AkVideoCaps12widthChangedEi@Base 7.2.1
 _ZN11AkVideoCaps13formatChangedENS_11PixelFormatE@Base 7.2.1
 _ZN11AkVideoCaps13heightChangedEi@Base 7.2.1
 _ZN11AkVideoCaps16staticMetaObjectE@Base 7.2.1
 _ZN11AkVideoCaps19pixelFormatToStringENS_11PixelFormatE@Base 7.2.1
 _ZN11AkVideoCaps21pixelFormatFromStringERK7QString@Base 7.2.1
 _ZN11AkVideoCaps3bppEv@Base 7.2.1
 _ZN11AkVideoCaps3fpsEv@Base 7.2.1
 _ZN11AkVideoCaps5clearEv@Base 7.2.1
 _ZN11AkVideoCaps5widthEv@Base 7.2.1
 _ZN11AkVideoCaps6formatEv@Base 7.2.1
 _ZN11AkVideoCaps6fourCCENS_11PixelFormatE@Base 7.2.1
 _ZN11AkVideoCaps6fourCCERK7QString@Base 7.2.1
 _ZN11AkVideoCaps6heightEv@Base 7.2.1
 _ZN11AkVideoCaps6setBppEi@Base 7.2.1
 _ZN11AkVideoCaps6setFpsERK6AkFrac@Base 7.2.1
 _ZN11AkVideoCaps6updateERK6AkCaps@Base 7.2.1
 _ZN11AkVideoCaps7fromMapERK4QMapI7QString8QVariantE@Base 7.2.1
 _ZN11AkVideoCaps7isValidEv@Base 7.2.1
 _ZN11AkVideoCaps7setSizeERK5QSize@Base 7.2.1
 _ZN11AkVideoCaps8resetBppEv@Base 7.2.1
 _ZN11AkVideoCaps8resetFpsEv@Base 7.2.1
 _ZN11AkVideoCaps8setWidthEi@Base 7.2.1
 _ZN11AkVideoCaps9resetSizeEv@Base 7.2.1
 _ZN11AkVideoCaps9setFormatENS_11PixelFormatE@Base 7.2.1
 _ZN11AkVideoCaps9setHeightEi@Base 7.2.1
 _ZN11AkVideoCapsC1EP7QObject@Base 7.2.1
 _ZN11AkVideoCapsC1ERK4QMapI7QString8QVariantE@Base 7.2.1
 _ZN11AkVideoCapsC1ERK6AkCaps@Base 7.2.1
 _ZN11AkVideoCapsC1ERK7QString@Base 7.2.1
 _ZN11AkVideoCapsC1ERKS_@Base 7.2.1
 _ZN11AkVideoCapsC2EP7QObject@Base 7.2.1
 _ZN11AkVideoCapsC2ERK4QMapI7QString8QVariantE@Base 7.2.1
 _ZN11AkVideoCapsC2ERK6AkCaps@Base 7.2.1
 _ZN11AkVideoCapsC2ERK7QString@Base 7.2.1
 _ZN11AkVideoCapsC2ERKS_@Base 7.2.1
 _ZN11AkVideoCapsD0Ev@Base 7.2.1
 _ZN11AkVideoCapsD1Ev@Base 7.2.1
 _ZN11AkVideoCapsD2Ev@Base 7.2.1
 _ZN11AkVideoCapsaSERK6AkCaps@Base 7.2.1
 _ZN11AkVideoCapsaSERK7QString@Base 7.2.1
 _ZN11AkVideoCapsaSERKS_@Base 7.2.1
 _ZN11VideoFormat7formatsEv@Base 7.2.1
 _ZN13AkAudioPacket11capsChangedERK11AkAudioCaps@Base 7.2.1
 _ZN13AkAudioPacket11qt_metacallEN11QMetaObject4CallEiPPv@Base 7.2.1
 _ZN13AkAudioPacket11qt_metacastEPKc@Base 7.2.1
 _ZN13AkAudioPacket16staticMetaObjectE@Base 7.2.1
 _ZN13AkAudioPacket4capsEv@Base 7.2.1
 _ZN13AkAudioPacket7setCapsERK11AkAudioCaps@Base 7.2.1
 _ZN13AkAudioPacket9resetCapsEv@Base 7.2.1
 _ZN13AkAudioPacketC1EP7QObject@Base 7.2.1
 _ZN13AkAudioPacketC1ERK11AkAudioCapsRK10QByteArrayxRK6AkFracix@Base 7.2.1
 _ZN13AkAudioPacketC1ERK8AkPacket@Base 7.2.1
 _ZN13AkAudioPacketC1ERKS_@Base 7.2.1
 _ZN13AkAudioPacketC2EP7QObject@Base 7.2.1
 _ZN13AkAudioPacketC2ERK11AkAudioCapsRK10QByteArrayxRK6AkFracix@Base 7.2.1
 _ZN13AkAudioPacketC2ERK8AkPacket@Base 7.2.1
 _ZN13AkAudioPacketC2ERKS_@Base 7.2.1
 _ZN13AkAudioPacketD0Ev@Base 7.2.1
 _ZN13AkAudioPacketD1Ev@Base 7.2.1
 _ZN13AkAudioPacketD2Ev@Base 7.2.1
 _ZN13AkAudioPacketaSERK8AkPacket@Base 7.2.1
 _ZN13AkAudioPacketaSERKS_@Base 7.2.1
 _ZN13AkVideoPacket11capsChangedERK11AkVideoCaps@Base 7.2.1
 _ZN13AkVideoPacket11qt_metacallEN11QMetaObject4CallEiPPv@Base 7.2.1
 _ZN13AkVideoPacket11qt_metacastEPKc@Base 7.2.1
 _ZN13AkVideoPacket16staticMetaObjectE@Base 7.2.1
 _ZN13AkVideoPacket4capsEv@Base 7.2.1
 _ZN13AkVideoPacket7setCapsERK11AkVideoCaps@Base 7.2.1
 _ZN13AkVideoPacket9resetCapsEv@Base 7.2.1
 _ZN13AkVideoPacketC1EP7QObject@Base 7.2.1
 _ZN13AkVideoPacketC1ERK11AkVideoCapsRK10QByteArrayxRK6AkFracix@Base 7.2.1
 _ZN13AkVideoPacketC1ERK8AkPacket@Base 7.2.1
 _ZN13AkVideoPacketC1ERKS_@Base 7.2.1
 _ZN13AkVideoPacketC2EP7QObject@Base 7.2.1
 _ZN13AkVideoPacketC2ERK11AkVideoCapsRK10QByteArrayxRK6AkFracix@Base 7.2.1
 _ZN13AkVideoPacketC2ERK8AkPacket@Base 7.2.1
 _ZN13AkVideoPacketC2ERKS_@Base 7.2.1
 _ZN13AkVideoPacketD0Ev@Base 7.2.1
 _ZN13AkVideoPacketD1Ev@Base 7.2.1
 _ZN13AkVideoPacketD2Ev@Base 7.2.1
 _ZN13AkVideoPacketaSERK8AkPacket@Base 7.2.1
 _ZN13AkVideoPacketaSERKS_@Base 7.2.1
 _ZN15QtSharedPointer33ExternalRefCountWithCustomDeleterI9AkElementNS_13NormalDeleterEE7deleterEPNS_20ExternalRefCountDataE@Base 7.2.1
 _ZN16AkElementPrivateC1Ev@Base 7.2.1
 _ZN16AkElementPrivateC2Ev@Base 7.2.1
 _ZN17QtMetaTypePrivate19IteratorOwnerCommonIN5QListIiE14const_iteratorEE5equalEPKPvS7_@Base 7.2.1
 _ZN17QtMetaTypePrivate19IteratorOwnerCommonIN5QListIiE14const_iteratorEE6assignEPPvPKS5_@Base 7.2.1
 _ZN17QtMetaTypePrivate19IteratorOwnerCommonIN5QListIiE14const_iteratorEE7advanceEPPvi@Base 7.2.1
 _ZN17QtMetaTypePrivate19IteratorOwnerCommonIN5QListIiE14const_iteratorEE7destroyEPPv@Base 7.2.1
 _ZN17QtMetaTypePrivate23QMetaTypeFunctionHelperI11AkAudioCapsLb1EE8DestructEPv@Base 7.2.1
 _ZN17QtMetaTypePrivate23QMetaTypeFunctionHelperI11AkAudioCapsLb1EE9ConstructEPvPKv@Base 7.2.1
 _ZN17QtMetaTypePrivate23QMetaTypeFunctionHelperI11AkVideoCapsLb1EE4LoadER11QDataStreamPv@Base 7.2.1
 _ZN17QtMetaTypePrivate23QMetaTypeFunctionHelperI11AkVideoCapsLb1EE4SaveER11QDataStreamPKv@Base 7.2.1
 _ZN17QtMetaTypePrivate23QMetaTypeFunctionHelperI11AkVideoCapsLb1EE8DestructEPv@Base 7.2.1
 _ZN17QtMetaTypePrivate23QMetaTypeFunctionHelperI11AkVideoCapsLb1EE9ConstructEPvPKv@Base 7.2.1
 _ZN17QtMetaTypePrivate23QMetaTypeFunctionHelperI13AkAudioPacketLb1EE8DestructEPv@Base 7.2.1
 _ZN17QtMetaTypePrivate23QMetaTypeFunctionHelperI13AkAudioPacketLb1EE9ConstructEPvPKv@Base 7.2.1
 _ZN17QtMetaTypePrivate23QMetaTypeFunctionHelperI13AkVideoPacketLb1EE8DestructEPv@Base 7.2.1
 _ZN17QtMetaTypePrivate23QMetaTypeFunctionHelperI13AkVideoPacketLb1EE9ConstructEPvPKv@Base 7.2.1
 _ZN17QtMetaTypePrivate23QMetaTypeFunctionHelperI14QSharedPointerI9AkElementELb1EE8DestructEPv@Base 7.2.1
 _ZN17QtMetaTypePrivate23QMetaTypeFunctionHelperI14QSharedPointerI9AkElementELb1EE9ConstructEPvPKv@Base 7.2.1
 _ZN17QtMetaTypePrivate23QMetaTypeFunctionHelperI5QListIiELb1EE8DestructEPv@Base 7.2.1
 _ZN17QtMetaTypePrivate23QMetaTypeFunctionHelperI5QListIiELb1EE9ConstructEPvPKv@Base 7.2.1
 _ZN17QtMetaTypePrivate23QMetaTypeFunctionHelperI6AkCapsLb1EE4LoadER11QDataStreamPv@Base 7.2.1
 _ZN17QtMetaTypePrivate23QMetaTypeFunctionHelperI6AkCapsLb1EE4SaveER11QDataStreamPKv@Base 7.2.1
 _ZN17QtMetaTypePrivate23QMetaTypeFunctionHelperI6AkCapsLb1EE8DestructEPv@Base 7.2.1
 _ZN17QtMetaTypePrivate23QMetaTypeFunctionHelperI6AkCapsLb1EE9ConstructEPvPKv@Base 7.2.1
 _ZN17QtMetaTypePrivate23QMetaTypeFunctionHelperI6AkFracLb1EE4LoadER11QDataStreamPv@Base 7.2.1
 _ZN17QtMetaTypePrivate23QMetaTypeFunctionHelperI6AkFracLb1EE4SaveER11QDataStreamPKv@Base 7.2.1
 _ZN17QtMetaTypePrivate23QMetaTypeFunctionHelperI6AkFracLb1EE8DestructEPv@Base 7.2.1
 _ZN17QtMetaTypePrivate23QMetaTypeFunctionHelperI6AkFracLb1EE9ConstructEPvPKv@Base 7.2.1
 _ZN17QtMetaTypePrivate23QMetaTypeFunctionHelperI6QColorLb1EE8DestructEPv@Base 7.2.1
 _ZN17QtMetaTypePrivate23QMetaTypeFunctionHelperI6QColorLb1EE9ConstructEPvPKv@Base 7.2.1
 _ZN17QtMetaTypePrivate23QMetaTypeFunctionHelperI8AkPacketLb1EE8DestructEPv@Base 7.2.1
 _ZN17QtMetaTypePrivate23QMetaTypeFunctionHelperI8AkPacketLb1EE9ConstructEPvPKv@Base 7.2.1
 _ZN17QtMetaTypePrivate23QMetaTypeFunctionHelperIN11AkAudioCaps12SampleFormatELb1EE8DestructEPv@Base 7.2.1
 _ZN17QtMetaTypePrivate23QMetaTypeFunctionHelperIN11AkAudioCaps12SampleFormatELb1EE9ConstructEPvPKv@Base 7.2.1
 _ZN17QtMetaTypePrivate23QMetaTypeFunctionHelperIN11AkAudioCaps13ChannelLayoutELb1EE8DestructEPv@Base 7.2.1
 _ZN17QtMetaTypePrivate23QMetaTypeFunctionHelperIN11AkAudioCaps13ChannelLayoutELb1EE9ConstructEPvPKv@Base 7.2.1
 _ZN17QtMetaTypePrivate23QMetaTypeFunctionHelperIN9AkElement12ElementStateELb1EE4LoadER11QDataStreamPv@Base 7.2.1
 _ZN17QtMetaTypePrivate23QMetaTypeFunctionHelperIN9AkElement12ElementStateELb1EE4SaveER11QDataStreamPKv@Base 7.2.1
 _ZN17QtMetaTypePrivate23QMetaTypeFunctionHelperIN9AkElement12ElementStateELb1EE8DestructEPv@Base 7.2.1
 _ZN17QtMetaTypePrivate23QMetaTypeFunctionHelperIN9AkElement12ElementStateELb1EE9ConstructEPvPKv@Base 7.2.1
 _ZN17QtMetaTypePrivate23QMetaTypeFunctionHelperINS_23QSequentialIterableImplELb1EE8DestructEPv@Base 7.2.1
 _ZN17QtMetaTypePrivate23QMetaTypeFunctionHelperINS_23QSequentialIterableImplELb1EE9ConstructEPvPKv@Base 7.2.1
 _ZN17QtMetaTypePrivate23QMetaTypeFunctionHelperIP10QQmlEngineLb1EE8DestructEPv@Base 7.2.1
 _ZN17QtMetaTypePrivate23QMetaTypeFunctionHelperIP10QQmlEngineLb1EE9ConstructEPvPKv@Base 7.2.1
 _ZN17QtMetaTypePrivate23QMetaTypeFunctionHelperIjLb1EE8DestructEPv@Base 7.2.1
 _ZN17QtMetaTypePrivate23QMetaTypeFunctionHelperIjLb1EE9ConstructEPvPKv@Base 7.2.1
 _ZN17QtMetaTypePrivate23QSequentialIterableImpl13moveToEndImplI5QListIiEEEvPKvPPv@Base 7.2.1
 _ZN17QtMetaTypePrivate23QSequentialIterableImpl15moveToBeginImplI5QListIiEEEvPKvPPv@Base 7.2.1
 _ZN17QtMetaTypePrivate23QSequentialIterableImpl6atImplI5QListIiEEEPKvS5_i@Base 7.2.1
 _ZN17QtMetaTypePrivate23QSequentialIterableImpl7getImplI5QListIiEEENS_11VariantDataEPKPvij@Base 7.2.1
 _ZN17QtMetaTypePrivate23QSequentialIterableImpl8sizeImplI5QListIiEEEiPKv@Base 7.2.1
 _ZN25AkMultimediaSourceElement10resetMediaEv@Base 7.2.1
 _ZN25AkMultimediaSourceElement10setStreamsERK5QListIiE@Base 7.2.1
 _ZN25AkMultimediaSourceElement11loopChangedEb@Base 7.2.1
 _ZN25AkMultimediaSourceElement11qt_metacallEN11QMetaObject4CallEiPPv@Base 7.2.1
 _ZN25AkMultimediaSourceElement11qt_metacastEPKc@Base 7.2.1
 _ZN25AkMultimediaSourceElement12mediaChangedERK7QString@Base 7.2.1
 _ZN25AkMultimediaSourceElement12resetStreamsEv@Base 7.2.1
 _ZN25AkMultimediaSourceElement13mediasChangedERK11QStringList@Base 7.2.1
 _ZN25AkMultimediaSourceElement14streamsChangedERK5QListIiE@Base 7.2.1
 _ZN25AkMultimediaSourceElement16staticMetaObjectE@Base 7.2.1
 _ZN25AkMultimediaSourceElement7setLoopEb@Base 7.2.1
 _ZN25AkMultimediaSourceElement8setMediaERK7QString@Base 7.2.1
 _ZN25AkMultimediaSourceElement9resetLoopEv@Base 7.2.1
 _ZN25AkMultimediaSourceElementC1EP7QObject@Base 7.2.1
 _ZN25AkMultimediaSourceElementC2EP7QObject@Base 7.2.1
 _ZN25AkMultimediaSourceElementD0Ev@Base 7.2.1
 _ZN25AkMultimediaSourceElementD1Ev@Base 7.2.1
 _ZN25AkMultimediaSourceElementD2Ev@Base 7.2.1
 _ZN2Ak12setQmlEngineEP10QQmlEngine@Base 7.2.1
 _ZN2Ak13qmlPluginPathEv@Base 7.2.1
 _ZN2Ak16setQmlPluginPathERK7QString@Base 7.2.1
 _ZN2Ak18resetQmlPluginPathEv@Base 7.2.1
 _ZN2Ak2idEv@Base 7.2.1
 _ZN4QMapI7QString8QVariantE13detach_helperEv@Base 7.2.1
 _ZN4QMapI7QString8QVariantED1Ev@Base 7.2.1
 _ZN4QMapI7QString8QVariantED2Ev@Base 7.2.1
 _ZN4QMapI7QString8QVariantEixERKS0_@Base 7.2.1
 _ZN4QMapIN11AkAudioCaps12SampleFormatEiE13detach_helperEv@Base 7.2.1
 _ZN4QMapIN11AkAudioCaps12SampleFormatEiED1Ev@Base 7.2.1
 _ZN4QMapIN11AkAudioCaps12SampleFormatEiED2Ev@Base 7.2.1
 _ZN4QMapIN11AkAudioCaps12SampleFormatEiEixERKS1_@Base 7.2.1
 _ZN4QMapIN11AkAudioCaps13ChannelLayoutE7QStringE13detach_helperEv@Base 7.2.1
 _ZN4QMapIN11AkAudioCaps13ChannelLayoutE7QStringEixERKS1_@Base 7.2.1
 _ZN4QMapIN11AkAudioCaps13ChannelLayoutEiE13detach_helperEv@Base 7.2.1
 _ZN4QMapIN11AkAudioCaps13ChannelLayoutEiED1Ev@Base 7.2.1
 _ZN4QMapIN11AkAudioCaps13ChannelLayoutEiED2Ev@Base 7.2.1
 _ZN4QMapIN11AkAudioCaps13ChannelLayoutEiEixERKS1_@Base 7.2.1
 _ZN4QMapIN6QImage6FormatEN11AkVideoCaps11PixelFormatEE13detach_helperEv@Base 7.2.1
 _ZN4QMapIN6QImage6FormatEN11AkVideoCaps11PixelFormatEED1Ev@Base 7.2.1
 _ZN4QMapIN6QImage6FormatEN11AkVideoCaps11PixelFormatEED2Ev@Base 7.2.1
 _ZN5QListI10QByteArrayED1Ev@Base 7.2.1
 _ZN5QListI10QByteArrayED2Ev@Base 7.2.1
 _ZN5QListI11QMetaMethodE18detach_helper_growEii@Base 7.2.1
 _ZN5QListI11QMetaMethodE6appendERKS0_@Base 7.2.1
 _ZN5QListI11QMetaMethodEC1ERKS1_@Base 7.2.1
 _ZN5QListI11QMetaMethodEC2ERKS1_@Base 7.2.1
 _ZN5QListI11QMetaMethodED1Ev@Base 7.2.1
 _ZN5QListI11QMetaMethodED2Ev@Base 7.2.1
 _ZN5QListI7QStringE13detach_helperEi@Base 7.2.1
 _ZN5QListI7QStringE18detach_helper_growEii@Base 7.2.1
 _ZN5QListI7QStringE5clearEv@Base 7.2.1
 _ZN5QListI7QStringE6appendERKS0_@Base 7.2.1
 _ZN5QListI7QStringE9removeAllERKS0_@Base 7.2.1
 _ZN5QListI7QStringEC1ERKS1_@Base 7.2.1
 _ZN5QListI7QStringEC2ERKS1_@Base 7.2.1
 _ZN5QListI7QStringED1Ev@Base 7.2.1
 _ZN5QListI7QStringED2Ev@Base 7.2.1
 _ZN5QListIN11AkVideoCaps11PixelFormatEE13detach_helperEi@Base 7.2.1
 _ZN5QListIN11AkVideoCaps11PixelFormatEE18detach_helper_growEii@Base 7.2.1
 _ZN5QListIN11AkVideoCaps11PixelFormatEE6appendERKS1_@Base 7.2.1
 _ZN5QListIN11AkVideoCaps11PixelFormatEED1Ev@Base 7.2.1
 _ZN5QListIN11AkVideoCaps11PixelFormatEED2Ev@Base 7.2.1
 _ZN5QListIiEC1ERKS0_@Base 7.2.1
 _ZN5QListIiEC2ERKS0_@Base 7.2.1
 _ZN5QListIiED1Ev@Base 7.2.1
 _ZN5QListIiED2Ev@Base 7.2.1
 _ZN6AkCaps10fromStringERK7QString@Base 7.2.1
 _ZN6AkCaps11qt_metacallEN11QMetaObject4CallEiPPv@Base 7.2.1
 _ZN6AkCaps11qt_metacastEPKc@Base 7.2.1
 _ZN6AkCaps11setMimeTypeERK7QString@Base 7.2.1
 _ZN6AkCaps13resetMimeTypeEv@Base 7.2.1
 _ZN6AkCaps15mimeTypeChangedERK7QString@Base 7.2.1
 _ZN6AkCaps16staticMetaObjectE@Base 7.2.1
 _ZN6AkCaps5clearEv@Base 7.2.1
 _ZN6AkCaps6updateERKS_@Base 7.2.1
 _ZN6AkCaps7fromMapERK4QMapI7QString8QVariantE@Base 7.2.1
 _ZN6AkCaps7isValidEv@Base 7.2.1
 _ZN6AkCapsC1EP7QObject@Base 7.2.1
 _ZN6AkCapsC1ERK4QMapI7QString8QVariantE@Base 7.2.1
 _ZN6AkCapsC1ERK7QString@Base 7.2.1
 _ZN6AkCapsC1ERKS_@Base 7.2.1
 _ZN6AkCapsC2EP7QObject@Base 7.2.1
 _ZN6AkCapsC2ERK4QMapI7QString8QVariantE@Base 7.2.1
 _ZN6AkCapsC2ERK7QString@Base 7.2.1
 _ZN6AkCapsC2ERKS_@Base 7.2.1
 _ZN6AkCapsD0Ev@Base 7.2.1
 _ZN6AkCapsD1Ev@Base 7.2.1
 _ZN6AkCapsD2Ev@Base 7.2.1
 _ZN6AkCapsaSERK7QString@Base 7.2.1
 _ZN6AkCapsaSERKS_@Base 7.2.1
 _ZN6AkFrac10denChangedEv@Base 7.2.1
 _ZN6AkFrac10numChangedEv@Base 7.2.1
 _ZN6AkFrac11qt_metacallEN11QMetaObject4CallEiPPv@Base 7.2.1
 _ZN6AkFrac11qt_metacastEPKc@Base 7.2.1
 _ZN6AkFrac12valueChangedEv@Base 7.2.1
 _ZN6AkFrac13stringChangedEv@Base 7.2.1
 _ZN6AkFrac14isValidChangedEv@Base 7.2.1
 _ZN6AkFrac16staticMetaObjectE@Base 7.2.1
 _ZN6AkFrac6setDenEx@Base 7.2.1
 _ZN6AkFrac6setNumEx@Base 7.2.1
 _ZN6AkFrac8resetDenEv@Base 7.2.1
 _ZN6AkFrac8resetNumEv@Base 7.2.1
 _ZN6AkFrac9setNumDenERK7QString@Base 7.2.1
 _ZN6AkFrac9setNumDenExx@Base 7.2.1
 _ZN6AkFracC1EP7QObject@Base 7.2.1
 _ZN6AkFracC1ERK7QString@Base 7.2.1
 _ZN6AkFracC1ERKS_@Base 7.2.1
 _ZN6AkFracC1Exx@Base 7.2.1
 _ZN6AkFracC2EP7QObject@Base 7.2.1
 _ZN6AkFracC2ERK7QString@Base 7.2.1
 _ZN6AkFracC2ERKS_@Base 7.2.1
 _ZN6AkFracC2Exx@Base 7.2.1
 _ZN6AkFracD0Ev@Base 7.2.1
 _ZN6AkFracD1Ev@Base 7.2.1
 _ZN6AkFracD2Ev@Base 7.2.1
 _ZN6AkFracaSERKS_@Base 7.2.1
 _ZN7AkUtils11roundSizeToERK8AkPacketi@Base 7.2.1
 _ZN7AkUtils12convertVideoERK13AkVideoPacketN11AkVideoCaps11PixelFormatERK5QSize@Base 7.2.1
 _ZN7AkUtils13imageToPacketERK6QImageRK8AkPacket@Base 7.2.1
 _ZN7AkUtils13packetToImageERK8AkPacket@Base 7.2.1
 _ZN7QStringD1Ev@Base 7.2.1
 _ZN7QStringD2Ev@Base 7.2.1
 _ZN7QVectorI11VideoFormatED1Ev@Base 7.2.1
 _ZN7QVectorI11VideoFormatED2Ev@Base 7.2.1
 _ZN8AkPacket10ptsChangedEx@Base 7.2.1
 _ZN8AkPacket10resetIndexEv@Base 7.2.1
 _ZN8AkPacket11capsChangedERK6AkCaps@Base 7.2.1
 _ZN8AkPacket11dataChangedERK8QVariant@Base 7.2.1
 _ZN8AkPacket11qt_metacallEN11QMetaObject4CallEiPPv@Base 7.2.1
 _ZN8AkPacket11qt_metacastEPKc@Base 7.2.1
 _ZN8AkPacket11resetBufferEv@Base 7.2.1
 _ZN8AkPacket11setTimeBaseERK6AkFrac@Base 7.2.1
 _ZN8AkPacket12indexChangedEi@Base 7.2.1
 _ZN8AkPacket13bufferChangedERK10QByteArray@Base 7.2.1
 _ZN8AkPacket13resetTimeBaseEv@Base 7.2.1
 _ZN8AkPacket15timeBaseChangedERK6AkFrac@Base 7.2.1
 _ZN8AkPacket16staticMetaObjectE@Base 7.2.1
 _ZN8AkPacket2idEv@Base 7.2.1
 _ZN8AkPacket3ptsEv@Base 7.2.1
 _ZN8AkPacket4capsEv@Base 7.2.1
 _ZN8AkPacket4dataEv@Base 7.2.1
 _ZN8AkPacket5indexEv@Base 7.2.1
 _ZN8AkPacket5setIdEx@Base 7.2.1
 _ZN8AkPacket6bufferEv@Base 7.2.1
 _ZN8AkPacket6setPtsEx@Base 7.2.1
 _ZN8AkPacket7resetIdEv@Base 7.2.1
 _ZN8AkPacket7setCapsERK6AkCaps@Base 7.2.1
 _ZN8AkPacket7setDataERK8QVariant@Base 7.2.1
 _ZN8AkPacket8resetPtsEv@Base 7.2.1
 _ZN8AkPacket8setIndexEi@Base 7.2.1
 _ZN8AkPacket8timeBaseEv@Base 7.2.1
 _ZN8AkPacket9idChangedEx@Base 7.2.1
 _ZN8AkPacket9resetCapsEv@Base 7.2.1
 _ZN8AkPacket9resetDataEv@Base 7.2.1
 _ZN8AkPacket9setBufferERK10QByteArray@Base 7.2.1
 _ZN8AkPacketC1EP7QObject@Base 7.2.1
 _ZN8AkPacketC1ERK6AkCapsRK10QByteArrayxRK6AkFracix@Base 7.2.1
 _ZN8AkPacketC1ERKS_@Base 7.2.1
 _ZN8AkPacketC2EP7QObject@Base 7.2.1
 _ZN8AkPacketC2ERK6AkCapsRK10QByteArrayxRK6AkFracix@Base 7.2.1
 _ZN8AkPacketC2ERKS_@Base 7.2.1
 _ZN8AkPacketD0Ev@Base 7.2.1
 _ZN8AkPacketD1Ev@Base 7.2.1
 _ZN8AkPacketD2Ev@Base 7.2.1
 _ZN8AkPacketaSERKS_@Base 7.2.1
 _ZN8AkPluginD0Ev@Base 7.2.1
 _ZN8AkPluginD1Ev@Base 7.2.1
 _ZN8AkPluginD2Ev@Base 7.2.1
 _ZN8QMapDataI7QString8QVariantE10createNodeERKS0_RKS1_P8QMapNodeIS0_S1_Eb@Base 7.2.1
 _ZN8QMapDataIN11AkAudioCaps13ChannelLayoutE7QStringE7destroyEv@Base 7.2.1
 _ZN8QMapNodeI7QString8QVariantE14destroySubTreeEv@Base 7.2.1
 _ZN8QMapNodeIN11AkAudioCaps13ChannelLayoutE7QStringE14destroySubTreeEv@Base 7.2.1
 _ZN9AkElement10clearCacheEv@Base 7.2.1
 _ZN9AkElement10pluginInfoERK7QString@Base 7.2.1
 _ZN9AkElement10pluginPathERK7QString@Base 7.2.1
 _ZN9AkElement10resetStateEv@Base 7.2.1
 _ZN9AkElement11listPluginsERK7QString@Base 7.2.1
 _ZN9AkElement11qt_metacallEN11QMetaObject4CallEiPPv@Base 7.2.1
 _ZN9AkElement11qt_metacastEPKc@Base 7.2.1
 _ZN9AkElement11searchPathsENS_11SearchPathsE@Base 7.2.1
 _ZN9AkElement11stateChangeENS_12ElementStateES0_@Base 7.2.1
 _ZN9AkElement12pluginsCacheEv@Base 7.2.1
 _ZN9AkElement12stateChangedENS_12ElementStateE@Base 7.2.1
 _ZN9AkElement13addSearchPathERK7QString@Base 7.2.1
 _ZN9AkElement14setSearchPathsERK11QStringList@Base 7.2.1
 _ZN9AkElement15listPluginPathsERK7QString@Base 7.2.1
 _ZN9AkElement15listPluginPathsEv@Base 7.2.1
 _ZN9AkElement15recursiveSearchEv@Base 7.2.1
 _ZN9AkElement15setPluginsCacheERK11QStringList@Base 7.2.1
 _ZN9AkElement16resetSearchPathsEv@Base 7.2.1
 _ZN9AkElement16staticMetaObjectE@Base 7.2.1
 _ZN9AkElement18setRecursiveSearchEb@Base 7.2.1
 _ZN9AkElement4linkERK14QSharedPointerIS_EPK7QObjectN2Qt14ConnectionTypeE@Base 7.2.1
 _ZN9AkElement4linkERK14QSharedPointerIS_ES3_N2Qt14ConnectionTypeE@Base 7.2.1
 _ZN9AkElement6createERK7QStringS2_@Base 7.2.1
 _ZN9AkElement6unlinkERK14QSharedPointerIS_EPK7QObject@Base 7.2.1
 _ZN9AkElement6unlinkERK14QSharedPointerIS_ES3_@Base 7.2.1
 _ZN9AkElement7iStreamERK13AkAudioPacket@Base 7.2.1
 _ZN9AkElement7iStreamERK13AkVideoPacket@Base 7.2.1
 _ZN9AkElement7iStreamERK8AkPacket@Base 7.2.1
 _ZN9AkElement7oStreamERK8AkPacket@Base 7.2.1
 _ZN9AkElement8setStateENS_12ElementStateE@Base 7.2.1
 _ZN9AkElementC1EP7QObject@Base 7.2.1
 _ZN9AkElementC2EP7QObject@Base 7.2.1
 _ZN9AkElementD0Ev@Base 7.2.1
 _ZN9AkElementD1Ev@Base 7.2.1
 _ZN9AkElementD2Ev@Base 7.2.1
 _ZN9AkElementclERK13AkAudioPacket@Base 7.2.1
 _ZN9AkElementclERK13AkVideoPacket@Base 7.2.1
 _ZN9AkElementclERK8AkPacket@Base 7.2.1
 _ZN9QtPrivate16ConverterFunctorI14QSharedPointerI9AkElementEP7QObjectNS_27QSmartPointerConvertFunctorIS3_EEE7convertEPKNS_25AbstractConverterFunctionEPKvPv@Base 7.2.1
 _ZN9QtPrivate16ConverterFunctorI14QSharedPointerI9AkElementEP7QObjectNS_27QSmartPointerConvertFunctorIS3_EEED1Ev@Base 7.2.1
 _ZN9QtPrivate16ConverterFunctorI14QSharedPointerI9AkElementEP7QObjectNS_27QSmartPointerConvertFunctorIS3_EEED2Ev@Base 7.2.1
 _ZN9QtPrivate16ConverterFunctorI5QListIiEN17QtMetaTypePrivate23QSequentialIterableImplENS3_33QSequentialIterableConvertFunctorIS2_EEE7convertEPKNS_25AbstractConverterFunctionEPKvPv@Base 7.2.1
 _ZN9QtPrivate16ConverterFunctorI5QListIiEN17QtMetaTypePrivate23QSequentialIterableImplENS3_33QSequentialIterableConvertFunctorIS2_EEED1Ev@Base 7.2.1
 _ZN9QtPrivate16ConverterFunctorI5QListIiEN17QtMetaTypePrivate23QSequentialIterableImplENS3_33QSequentialIterableConvertFunctorIS2_EEED2Ev@Base 7.2.1
 _ZNK11AkAudioCaps10metaObjectEv@Base 7.2.1
 _ZNK11AkAudioCaps3bpsEv@Base 7.2.1
 _ZNK11AkAudioCaps4rateEv@Base 7.2.1
 _ZNK11AkAudioCaps5alignEv@Base 7.2.1
 _ZNK11AkAudioCaps5toMapEv@Base 7.2.1
 _ZNK11AkAudioCaps6formatEv@Base 7.2.1
 _ZNK11AkAudioCaps6layoutEv@Base 7.2.1
 _ZNK11AkAudioCaps6toCapsEv@Base 7.2.1
 _ZNK11AkAudioCaps7isValidEv@Base 7.2.1
 _ZNK11AkAudioCaps7samplesEv@Base 7.2.1
 _ZNK11AkAudioCaps8channelsEv@Base 7.2.1
 _ZNK11AkAudioCaps8toStringEv@Base 7.2.1
 _ZNK11AkAudioCapscv6AkCapsEv@Base 7.2.1
 _ZNK11AkAudioCapscvbEv@Base 7.2.1
 _ZNK11AkAudioCapseqERKS_@Base 7.2.1
 _ZNK11AkAudioCapsneERKS_@Base 7.2.1
 _ZNK11AkVideoCaps10metaObjectEv@Base 7.2.1
 _ZNK11AkVideoCaps11pictureSizeEv@Base 7.2.1
 _ZNK11AkVideoCaps3bppEv@Base 7.2.1
 _ZNK11AkVideoCaps3fpsEv@Base 7.2.1
 _ZNK11AkVideoCaps4sizeEv@Base 7.2.1
 _ZNK11AkVideoCaps5toMapEv@Base 7.2.1
 _ZNK11AkVideoCaps5widthEv@Base 7.2.1
 _ZNK11AkVideoCaps6formatEv@Base 7.2.1
 _ZNK11AkVideoCaps6heightEv@Base 7.2.1
 _ZNK11AkVideoCaps6toCapsEv@Base 7.2.1
 _ZNK11AkVideoCaps7isValidEv@Base 7.2.1
 _ZNK11AkVideoCaps8toStringEv@Base 7.2.1
 _ZNK11AkVideoCapscv6AkCapsEv@Base 7.2.1
 _ZNK11AkVideoCapscvbEv@Base 7.2.1
 _ZNK11AkVideoCapseqERKS_@Base 7.2.1
 _ZNK11AkVideoCapsneERKS_@Base 7.2.1
 _ZNK13AkAudioPacket10metaObjectEv@Base 7.2.1
 _ZNK13AkAudioPacket4capsEv@Base 7.2.1
 _ZNK13AkAudioPacket8toPacketEv@Base 7.2.1
 _ZNK13AkAudioPacket8toStringEv@Base 7.2.1
 _ZNK13AkAudioPacketcvbEv@Base 7.2.1
 _ZNK13AkVideoPacket10metaObjectEv@Base 7.2.1
 _ZNK13AkVideoPacket4capsEv@Base 7.2.1
 _ZNK13AkVideoPacket8toPacketEv@Base 7.2.1
 _ZNK13AkVideoPacket8toStringEv@Base 7.2.1
 _ZNK13AkVideoPacketcvbEv@Base 7.2.1
 _ZNK25AkMultimediaSourceElement10metaObjectEv@Base 7.2.1
 _ZNK25AkMultimediaSourceElement11descriptionERK7QString@Base 7.2.1
 _ZNK25AkMultimediaSourceElement13defaultStreamERK7QString@Base 7.2.1
 _ZNK25AkMultimediaSourceElement4capsEi@Base 7.2.1
 _ZNK25AkMultimediaSourceElement4loopEv@Base 7.2.1
 _ZNK25AkMultimediaSourceElement5mediaEv@Base 7.2.1
 _ZNK25AkMultimediaSourceElement6mediasEv@Base 7.2.1
 _ZNK25AkMultimediaSourceElement7streamsEv@Base 7.2.1
 _ZNK4QMapIN11AkAudioCaps13ChannelLayoutE7QStringE3keyERKS2_RKS1_@Base 7.2.1
 _ZNK4QMapIN11AkAudioCaps13ChannelLayoutEiE3keyERKiRKS1_@Base 7.2.1
 _ZNK4QMapIN6QImage6FormatEN11AkVideoCaps11PixelFormatEE3keyERKS3_RKS1_@Base 7.2.1
 _ZNK4QMapIN6QImage6FormatEN11AkVideoCaps11PixelFormatEE6valuesEv@Base 7.2.1
 _ZNK6AkCaps10metaObjectEv@Base 7.2.1
 _ZNK6AkCaps12isCompatibleERKS_@Base 7.2.1
 _ZNK6AkCaps5toMapEv@Base 7.2.1
 _ZNK6AkCaps7isValidEv@Base 7.2.1
 _ZNK6AkCaps8containsERK7QString@Base 7.2.1
 _ZNK6AkCaps8mimeTypeEv@Base 7.2.1
 _ZNK6AkCaps8toStringEv@Base 7.2.1
 _ZNK6AkCapscvbEv@Base 7.2.1
 _ZNK6AkCapseqERK7QString@Base 7.2.1
 _ZNK6AkCapseqERKS_@Base 7.2.1
 _ZNK6AkCapsneERK7QString@Base 7.2.1
 _ZNK6AkCapsneERKS_@Base 7.2.1
 _ZNK6AkFrac10metaObjectEv@Base 7.2.1
 _ZNK6AkFrac3denEv@Base 7.2.1
 _ZNK6AkFrac3numEv@Base 7.2.1
 _ZNK6AkFrac5valueEv@Base 7.2.1
 _ZNK6AkFrac6invertEv@Base 7.2.1
 _ZNK6AkFrac7isValidEv@Base 7.2.1
 _ZNK6AkFrac8toStringEv@Base 7.2.1
 _ZNK6AkFrac9fastValueEv@Base 7.2.1
 _ZNK6AkFraceqERKS_@Base 7.2.1
 _ZNK6AkFracmlERKS_@Base 7.2.1
 _ZNK6AkFracneERKS_@Base 7.2.1
 _ZNK8AkPacket10metaObjectEv@Base 7.2.1
 _ZNK8AkPacket2idEv@Base 7.2.1
 _ZNK8AkPacket3ptsEv@Base 7.2.1
 _ZNK8AkPacket4capsEv@Base 7.2.1
 _ZNK8AkPacket4dataEv@Base 7.2.1
 _ZNK8AkPacket5indexEv@Base 7.2.1
 _ZNK8AkPacket6bufferEv@Base 7.2.1
 _ZNK8AkPacket8timeBaseEv@Base 7.2.1
 _ZNK8AkPacket8toStringEv@Base 7.2.1
 _ZNK8AkPacketcvbEv@Base 7.2.1
 _ZNK8QMapDataI7QString8QVariantE8findNodeERKS0_@Base 7.2.1
 _ZNK8QMapNodeI7QString8QVariantE4copyEP8QMapDataIS0_S1_E@Base 7.2.1
 _ZNK8QMapNodeIN11AkAudioCaps12SampleFormatEiE4copyEP8QMapDataIS1_iE@Base 7.2.1
 _ZNK8QMapNodeIN11AkAudioCaps13ChannelLayoutE7QStringE4copyEP8QMapDataIS1_S2_E@Base 7.2.1
 _ZNK8QMapNodeIN11AkAudioCaps13ChannelLayoutEiE4copyEP8QMapDataIS1_iE@Base 7.2.1
 _ZNK8QMapNodeIN6QImage6FormatEN11AkVideoCaps11PixelFormatEE4copyEP8QMapDataIS1_S3_E@Base 7.2.1
 _ZNK9AkElement10metaObjectEv@Base 7.2.1
 _ZNK9AkElement16controlInterfaceEP10QQmlEngineRK7QString@Base 7.2.1
 _ZNK9AkElement4linkEPK7QObjectN2Qt14ConnectionTypeE@Base 7.2.1
 _ZNK9AkElement4linkERK14QSharedPointerIS_EN2Qt14ConnectionTypeE@Base 7.2.1
 _ZNK9AkElement5stateEv@Base 7.2.1
 _ZNK9AkElement6unlinkEPK7QObject@Base 7.2.1
 _ZNK9AkElement6unlinkERK14QSharedPointerIS_E@Base 7.2.1
 _ZNK9AkElement8pluginIdEv@Base 7.2.1
 _ZSt9__find_ifIPK10QByteArrayN9__gnu_cxx5__ops16_Iter_equals_valIS1_EEET_S7_S7_T0_St26random_access_iterator_tag@Base 7.2.1
 _ZTI11AkAudioCaps@Base 7.2.1
 _ZTI11AkVideoCaps@Base 7.2.1
 _ZTI13AkAudioPacket@Base 7.2.1
 _ZTI13AkVideoPacket@Base 7.2.1
 _ZTI25AkMultimediaSourceElement@Base 7.2.1
 _ZTI6AkCaps@Base 7.2.1
 _ZTI6AkFrac@Base 7.2.1
 _ZTI8AkPacket@Base 7.2.1
 _ZTI8AkPlugin@Base 7.2.1
 _ZTI9AkElement@Base 7.2.1
 _ZTS11AkAudioCaps@Base 7.2.1
 _ZTS11AkVideoCaps@Base 7.2.1
 _ZTS13AkAudioPacket@Base 7.2.1
 _ZTS13AkVideoPacket@Base 7.2.1
 _ZTS25AkMultimediaSourceElement@Base 7.2.1
 _ZTS6AkCaps@Base 7.2.1
 _ZTS6AkFrac@Base 7.2.1
 _ZTS8AkPacket@Base 7.2.1
 _ZTS8AkPlugin@Base 7.2.1
 _ZTS9AkElement@Base 7.2.1
 _ZTV11AkAudioCaps@Base 7.2.1
 _ZTV11AkVideoCaps@Base 7.2.1
 _ZTV13AkAudioPacket@Base 7.2.1
 _ZTV13AkVideoPacket@Base 7.2.1
 _ZTV25AkMultimediaSourceElement@Base 7.2.1
 _ZTV6AkCaps@Base 7.2.1
 _ZTV6AkFrac@Base 7.2.1
 _ZTV8AkPacket@Base 7.2.1
 _ZTV8AkPlugin@Base 7.2.1
 _ZTV9AkElement@Base 7.2.1
 _ZZN11QMetaTypeIdI11AkAudioCapsE14qt_metatype_idEvE11metatype_id@Base 7.2.1
 _ZZN11QMetaTypeIdI11AkVideoCapsE14qt_metatype_idEvE11metatype_id@Base 7.2.1
 _ZZN11QMetaTypeIdI13AkAudioPacketE14qt_metatype_idEvE11metatype_id@Base 7.2.1
 _ZZN11QMetaTypeIdI13AkVideoPacketE14qt_metatype_idEvE11metatype_id@Base 7.2.1
 _ZZN11QMetaTypeIdI5QListIiEE14qt_metatype_idEvE11metatype_id@Base 7.2.1
 _ZZN11QMetaTypeIdI6AkCapsE14qt_metatype_idEvE11metatype_id@Base 7.2.1
 _ZZN11QMetaTypeIdI6AkFracE14qt_metatype_idEvE11metatype_id@Base 7.2.1
 _ZZN11QMetaTypeIdI8AkPacketE14qt_metatype_idEvE11metatype_id@Base 7.2.1
 _ZZN11QMetaTypeIdIN11AkAudioCaps12SampleFormatEE14qt_metatype_idEvE11metatype_id@Base 7.2.1
 _ZZN11QMetaTypeIdIN11AkAudioCaps13ChannelLayoutEE14qt_metatype_idEvE11metatype_id@Base 7.2.1
 _ZZN11QMetaTypeIdIN17QtMetaTypePrivate23QSequentialIterableImplEE14qt_metatype_idEvE11metatype_id@Base 7.2.1
 _ZZN11QMetaTypeIdIN9AkElement12ElementStateEE14qt_metatype_idEvE11metatype_id@Base 7.2.1
 _ZZN11VideoFormat7formatsEvE12videoFormats@Base 7.2.1
 _ZZN18QMetaTypeIdQObjectIP10QQmlEngineLi8EE14qt_metatype_idEvE11metatype_id@Base 7.2.1
 _ZZN9QtPrivate19ValueTypeIsMetaTypeI5QListIiELb1EE17registerConverterEiE1f@Base 7.2.1
 _ZZN9QtPrivate26MetaTypeSmartPointerHelperI14QSharedPointerI9AkElementEvE17registerConverterEiE1f@Base 7.2.1
 _ZZN9QtPrivate29SharedPointerMetaTypeIdHelperI14QSharedPointerI9AkElementELb1EE14qt_metatype_idEvE11metatype_id@Base 7.2.1
 _ZdvRK6AkFracS1_@Base 7.2.1
 _ZdviRK6AkFrac@Base 7.2.1
 _Zls6QDebugRK11AkAudioCaps@Base 7.2.1
 _Zls6QDebugRK11AkVideoCaps@Base 7.2.1
 _Zls6QDebugRK13AkAudioPacket@Base 7.2.1
 _Zls6QDebugRK13AkVideoPacket@Base 7.2.1
 _Zls6QDebugRK6AkCaps@Base 7.2.1
 _Zls6QDebugRK6AkFrac@Base 7.2.1
 _Zls6QDebugRK8AkPacket@Base 7.2.1
 _ZlsR11QDataStreamN9AkElement12ElementStateE@Base 7.2.1
 _ZlsR11QDataStreamRK11AkAudioCaps@Base 7.2.1
 _ZlsR11QDataStreamRK11AkVideoCaps@Base 7.2.1
 _ZlsR11QDataStreamRK6AkCaps@Base 7.2.1
 _ZlsR11QDataStreamRK6AkFrac@Base 7.2.1
 _ZmiRK6AkFracS1_@Base 7.2.1
 _ZmliRK6AkFrac@Base 7.2.1
 _ZplRK6AkFracS1_@Base 7.2.1
 _ZrsR11QDataStreamR11AkAudioCaps@Base 7.2.1
 _ZrsR11QDataStreamR11AkVideoCaps@Base 7.2.1
 _ZrsR11QDataStreamR6AkCaps@Base 7.2.1
 _ZrsR11QDataStreamR6AkFrac@Base 7.2.1
 _ZrsR11QDataStreamRN9AkElement12ElementStateE@Base 7.2.1
