libqb.so.6 libqb6 #MINVER#
 _Z17qRegisterMetaTypeI11QbVideoCapsEiPKcPT_N9QtPrivate21MetaTypeDefinedHelperIS3_Xaasr12QMetaTypeId2IS3_E7DefinedntsrS8_9IsBuiltInEE11DefinedTypeE@Base 6.2.0
 _Z17qRegisterMetaTypeI6QbCapsEiPKcPT_N9QtPrivate21MetaTypeDefinedHelperIS3_Xaasr12QMetaTypeId2IS3_E7DefinedntsrS8_9IsBuiltInEE11DefinedTypeE@Base 6.2.0
 _Z17qRegisterMetaTypeI6QbFracEiPKcPT_N9QtPrivate21MetaTypeDefinedHelperIS3_Xaasr12QMetaTypeId2IS3_E7DefinedntsrS8_9IsBuiltInEE11DefinedTypeE@Base 6.2.0
 _Z17qRegisterMetaTypeI8QbPacketEiPKcPT_N9QtPrivate21MetaTypeDefinedHelperIS3_Xaasr12QMetaTypeId2IS3_E7DefinedntsrS8_9IsBuiltInEE11DefinedTypeE@Base 6.2.0
 _Z17qRegisterMetaTypeIN11QbAudioCaps12SampleFormatEEiPKcPT_N9QtPrivate21MetaTypeDefinedHelperIS4_Xaasr12QMetaTypeId2IS4_E7DefinedntsrS9_9IsBuiltInEE11DefinedTypeE@Base 6.2.0
 _Z17qRegisterMetaTypeIN11QbAudioCaps13ChannelLayoutEEiPKcPT_N9QtPrivate21MetaTypeDefinedHelperIS4_Xaasr12QMetaTypeId2IS4_E7DefinedntsrS9_9IsBuiltInEE11DefinedTypeE@Base 6.2.0
 _Z17qRegisterMetaTypeIN11QbVideoCaps11VideoFormatEEiPKcPT_N9QtPrivate21MetaTypeDefinedHelperIS4_Xaasr12QMetaTypeId2IS4_E7DefinedntsrS9_9IsBuiltInEE11DefinedTypeE@Base 6.2.0
 _Z17qRegisterMetaTypeIN9QbElement12ElementStateEEiPKcPT_N9QtPrivate21MetaTypeDefinedHelperIS4_Xaasr12QMetaTypeId2IS4_E7DefinedntsrS9_9IsBuiltInEE11DefinedTypeE@Base 6.2.0
 _Z23initChannelLayoutStrMapv@Base 6.2.0
 _Z27qRegisterNormalizedMetaTypeI5QListIiEEiRK10QByteArrayPT_N9QtPrivate21MetaTypeDefinedHelperIS5_Xaasr12QMetaTypeId2IS5_E7DefinedntsrSA_9IsBuiltInEE11DefinedTypeE@Base 6.2.0
 _ZGVZN9QtPrivate19ValueTypeIsMetaTypeI5QListIiELb1EE17registerConverterEiE1f@Base 6.2.0
 _ZGVZN9QtPrivate26MetaTypeSmartPointerHelperI14QSharedPointerI9QbElementEvE17registerConverterEiE1f@Base 6.2.0
 _ZN10QByteArrayD1Ev@Base 6.2.0
 _ZN10QByteArrayD2Ev@Base 6.2.0
 _ZN11QbAudioCaps10bpsChangedEi@Base 6.2.0
 _ZN11QbAudioCaps10fromStringERK7QString@Base 6.2.0
 _ZN11QbAudioCaps10resetAlignEv@Base 6.2.0
 _ZN11QbAudioCaps10setSamplesEi@Base 6.2.0
 _ZN11QbAudioCaps11qt_metacallEN11QMetaObject4CallEiPPv@Base 6.2.0
 _ZN11QbAudioCaps11qt_metacastEPKc@Base 6.2.0
 _ZN11QbAudioCaps11rateChangedEi@Base 6.2.0
 _ZN11QbAudioCaps11resetFormatEv@Base 6.2.0
 _ZN11QbAudioCaps11resetLayoutEv@Base 6.2.0
 _ZN11QbAudioCaps11setChannelsEi@Base 6.2.0
 _ZN11QbAudioCaps12alignChangedEb@Base 6.2.0
 _ZN11QbAudioCaps12resetSamplesEv@Base 6.2.0
 _ZN11QbAudioCaps13formatChangedENS_12SampleFormatE@Base 6.2.0
 _ZN11QbAudioCaps13layoutChangedENS_13ChannelLayoutE@Base 6.2.0
 _ZN11QbAudioCaps13resetChannelsEv@Base 6.2.0
 _ZN11QbAudioCaps14samplesChangedEi@Base 6.2.0
 _ZN11QbAudioCaps15channelsChangedEi@Base 6.2.0
 _ZN11QbAudioCaps16staticMetaObjectE@Base 6.2.0
 _ZN11QbAudioCaps3bpsEv@Base 6.2.0
 _ZN11QbAudioCaps4rateEv@Base 6.2.0
 _ZN11QbAudioCaps5alignEv@Base 6.2.0
 _ZN11QbAudioCaps6formatEv@Base 6.2.0
 _ZN11QbAudioCaps6layoutEv@Base 6.2.0
 _ZN11QbAudioCaps6setBpsEi@Base 6.2.0
 _ZN11QbAudioCaps6updateERK6QbCaps@Base 6.2.0
 _ZN11QbAudioCaps7fromMapERK4QMapI7QString8QVariantE@Base 6.2.0
 _ZN11QbAudioCaps7samplesEv@Base 6.2.0
 _ZN11QbAudioCaps7setRateEi@Base 6.2.0
 _ZN11QbAudioCaps8channelsEv@Base 6.2.0
 _ZN11QbAudioCaps8resetBpsEv@Base 6.2.0
 _ZN11QbAudioCaps8setAlignEb@Base 6.2.0
 _ZN11QbAudioCaps9resetRateEv@Base 6.2.0
 _ZN11QbAudioCaps9setFormatENS_12SampleFormatE@Base 6.2.0
 _ZN11QbAudioCaps9setLayoutENS_13ChannelLayoutE@Base 6.2.0
 _ZN11QbAudioCapsC1EP7QObject@Base 6.2.0
 _ZN11QbAudioCapsC1ERK4QMapI7QString8QVariantE@Base 6.2.0
 _ZN11QbAudioCapsC1ERK6QbCaps@Base 6.2.0
 _ZN11QbAudioCapsC1ERK7QString@Base 6.2.0
 _ZN11QbAudioCapsC1ERKS_@Base 6.2.0
 _ZN11QbAudioCapsC2EP7QObject@Base 6.2.0
 _ZN11QbAudioCapsC2ERK4QMapI7QString8QVariantE@Base 6.2.0
 _ZN11QbAudioCapsC2ERK6QbCaps@Base 6.2.0
 _ZN11QbAudioCapsC2ERK7QString@Base 6.2.0
 _ZN11QbAudioCapsC2ERKS_@Base 6.2.0
 _ZN11QbAudioCapsD0Ev@Base 6.2.0
 _ZN11QbAudioCapsD1Ev@Base 6.2.0
 _ZN11QbAudioCapsD2Ev@Base 6.2.0
 _ZN11QbAudioCapsaSERK6QbCaps@Base 6.2.0
 _ZN11QbAudioCapsaSERK7QString@Base 6.2.0
 _ZN11QbAudioCapsaSERKS_@Base 6.2.0
 _ZN11QbVideoCaps10fpsChangedERK6QbFrac@Base 6.2.0
 _ZN11QbVideoCaps10fromStringERK7QString@Base 6.2.0
 _ZN11QbVideoCaps10resetWidthEv@Base 6.2.0
 _ZN11QbVideoCaps11qt_metacallEN11QMetaObject4CallEiPPv@Base 6.2.0
 _ZN11QbVideoCaps11qt_metacastEPKc@Base 6.2.0
 _ZN11QbVideoCaps11resetFormatEv@Base 6.2.0
 _ZN11QbVideoCaps11resetHeightEv@Base 6.2.0
 _ZN11QbVideoCaps12widthChangedEi@Base 6.2.0
 _ZN11QbVideoCaps13formatChangedENS_11VideoFormatE@Base 6.2.0
 _ZN11QbVideoCaps13heightChangedEi@Base 6.2.0
 _ZN11QbVideoCaps16staticMetaObjectE@Base 6.2.0
 _ZN11QbVideoCaps3fpsEv@Base 6.2.0
 _ZN11QbVideoCaps5widthEv@Base 6.2.0
 _ZN11QbVideoCaps6formatEv@Base 6.2.0
 _ZN11QbVideoCaps6heightEv@Base 6.2.0
 _ZN11QbVideoCaps6setFpsERK6QbFrac@Base 6.2.0
 _ZN11QbVideoCaps6updateERK6QbCaps@Base 6.2.0
 _ZN11QbVideoCaps7fromMapERK4QMapI7QString8QVariantE@Base 6.2.0
 _ZN11QbVideoCaps8resetFpsEv@Base 6.2.0
 _ZN11QbVideoCaps8setWidthEi@Base 6.2.0
 _ZN11QbVideoCaps9setFormatENS_11VideoFormatE@Base 6.2.0
 _ZN11QbVideoCaps9setHeightEi@Base 6.2.0
 _ZN11QbVideoCapsC1EP7QObject@Base 6.2.0
 _ZN11QbVideoCapsC1ERK4QMapI7QString8QVariantE@Base 6.2.0
 _ZN11QbVideoCapsC1ERK6QbCaps@Base 6.2.0
 _ZN11QbVideoCapsC1ERK7QString@Base 6.2.0
 _ZN11QbVideoCapsC1ERKS_@Base 6.2.0
 _ZN11QbVideoCapsC2EP7QObject@Base 6.2.0
 _ZN11QbVideoCapsC2ERK4QMapI7QString8QVariantE@Base 6.2.0
 _ZN11QbVideoCapsC2ERK6QbCaps@Base 6.2.0
 _ZN11QbVideoCapsC2ERK7QString@Base 6.2.0
 _ZN11QbVideoCapsC2ERKS_@Base 6.2.0
 _ZN11QbVideoCapsD0Ev@Base 6.2.0
 _ZN11QbVideoCapsD1Ev@Base 6.2.0
 _ZN11QbVideoCapsD2Ev@Base 6.2.0
 _ZN11QbVideoCapsaSERK6QbCaps@Base 6.2.0
 _ZN11QbVideoCapsaSERK7QString@Base 6.2.0
 _ZN11QbVideoCapsaSERKS_@Base 6.2.0
 _ZN13QbAudioPacket11capsChangedERK11QbAudioCaps@Base 6.2.0
 _ZN13QbAudioPacket11qt_metacallEN11QMetaObject4CallEiPPv@Base 6.2.0
 _ZN13QbAudioPacket11qt_metacastEPKc@Base 6.2.0
 _ZN13QbAudioPacket16staticMetaObjectE@Base 6.2.0
 _ZN13QbAudioPacket4capsEv@Base 6.2.0
 _ZN13QbAudioPacket7setCapsERK11QbAudioCaps@Base 6.2.0
 _ZN13QbAudioPacket9resetCapsEv@Base 6.2.0
 _ZN13QbAudioPacketC1EP7QObject@Base 6.2.0
 _ZN13QbAudioPacketC1ERK11QbAudioCapsRK14QSharedPointerIcEmxRK6QbFracix@Base 6.2.0
 _ZN13QbAudioPacketC1ERK8QbPacket@Base 6.2.0
 _ZN13QbAudioPacketC1ERKS_@Base 6.2.0
 _ZN13QbAudioPacketC2EP7QObject@Base 6.2.0
 _ZN13QbAudioPacketC2ERK11QbAudioCapsRK14QSharedPointerIcEmxRK6QbFracix@Base 6.2.0
 _ZN13QbAudioPacketC2ERK8QbPacket@Base 6.2.0
 _ZN13QbAudioPacketC2ERKS_@Base 6.2.0
 _ZN13QbAudioPacketD0Ev@Base 6.2.0
 _ZN13QbAudioPacketD1Ev@Base 6.2.0
 _ZN13QbAudioPacketD2Ev@Base 6.2.0
 _ZN13QbAudioPacketaSERK8QbPacket@Base 6.2.0
 _ZN13QbAudioPacketaSERKS_@Base 6.2.0
 _ZN13QbVideoPacket11capsChangedERK11QbVideoCaps@Base 6.2.0
 _ZN13QbVideoPacket11qt_metacallEN11QMetaObject4CallEiPPv@Base 6.2.0
 _ZN13QbVideoPacket11qt_metacastEPKc@Base 6.2.0
 _ZN13QbVideoPacket16staticMetaObjectE@Base 6.2.0
 _ZN13QbVideoPacket4capsEv@Base 6.2.0
 _ZN13QbVideoPacket7setCapsERK11QbVideoCaps@Base 6.2.0
 _ZN13QbVideoPacket9resetCapsEv@Base 6.2.0
 _ZN13QbVideoPacketC1EP7QObject@Base 6.2.0
 _ZN13QbVideoPacketC1ERK11QbVideoCapsRK14QSharedPointerIcEmxRK6QbFracix@Base 6.2.0
 _ZN13QbVideoPacketC1ERK8QbPacket@Base 6.2.0
 _ZN13QbVideoPacketC1ERKS_@Base 6.2.0
 _ZN13QbVideoPacketC2EP7QObject@Base 6.2.0
 _ZN13QbVideoPacketC2ERK11QbVideoCapsRK14QSharedPointerIcEmxRK6QbFracix@Base 6.2.0
 _ZN13QbVideoPacketC2ERK8QbPacket@Base 6.2.0
 _ZN13QbVideoPacketC2ERKS_@Base 6.2.0
 _ZN13QbVideoPacketD0Ev@Base 6.2.0
 _ZN13QbVideoPacketD1Ev@Base 6.2.0
 _ZN13QbVideoPacketD2Ev@Base 6.2.0
 _ZN13QbVideoPacketaSERK8QbPacket@Base 6.2.0
 _ZN13QbVideoPacketaSERKS_@Base 6.2.0
 _ZN14QSharedPointerI9QbElementE5derefEPN15QtSharedPointer20ExternalRefCountDataE@Base 6.2.0
 _ZN14QSharedPointerIcE5derefEPN15QtSharedPointer20ExternalRefCountDataE@Base 6.2.0
 _ZN15QtSharedPointer33ExternalRefCountWithCustomDeleterI9QbElementNS_13NormalDeleterEE7deleterEPNS_20ExternalRefCountDataE@Base 6.2.0
 _ZN15QtSharedPointer33ExternalRefCountWithCustomDeleterIcNS_13NormalDeleterEE7deleterEPNS_20ExternalRefCountDataE@Base 6.2.0
 _ZN17QtMetaTypePrivate19IteratorOwnerCommonIN5QListIiE14const_iteratorEE5equalEPKPvS7_@Base 6.2.0
 _ZN17QtMetaTypePrivate19IteratorOwnerCommonIN5QListIiE14const_iteratorEE6assignEPPvPKS5_@Base 6.2.0
 _ZN17QtMetaTypePrivate19IteratorOwnerCommonIN5QListIiE14const_iteratorEE7advanceEPPvi@Base 6.2.0
 _ZN17QtMetaTypePrivate19IteratorOwnerCommonIN5QListIiE14const_iteratorEE7destroyEPPv@Base 6.2.0
 _ZN17QtMetaTypePrivate23QMetaTypeFunctionHelperI11QbAudioCapsLb1EE8DestructEPv@Base 6.2.0
 _ZN17QtMetaTypePrivate23QMetaTypeFunctionHelperI11QbAudioCapsLb1EE9ConstructEPvPKv@Base 6.2.0
 _ZN17QtMetaTypePrivate23QMetaTypeFunctionHelperI11QbVideoCapsLb1EE4LoadER11QDataStreamPv@Base 6.2.0
 _ZN17QtMetaTypePrivate23QMetaTypeFunctionHelperI11QbVideoCapsLb1EE4SaveER11QDataStreamPKv@Base 6.2.0
 _ZN17QtMetaTypePrivate23QMetaTypeFunctionHelperI11QbVideoCapsLb1EE8DestructEPv@Base 6.2.0
 _ZN17QtMetaTypePrivate23QMetaTypeFunctionHelperI11QbVideoCapsLb1EE9ConstructEPvPKv@Base 6.2.0
 _ZN17QtMetaTypePrivate23QMetaTypeFunctionHelperI13QbAudioPacketLb1EE8DestructEPv@Base 6.2.0
 _ZN17QtMetaTypePrivate23QMetaTypeFunctionHelperI13QbAudioPacketLb1EE9ConstructEPvPKv@Base 6.2.0
 _ZN17QtMetaTypePrivate23QMetaTypeFunctionHelperI13QbVideoPacketLb1EE8DestructEPv@Base 6.2.0
 _ZN17QtMetaTypePrivate23QMetaTypeFunctionHelperI13QbVideoPacketLb1EE9ConstructEPvPKv@Base 6.2.0
 _ZN17QtMetaTypePrivate23QMetaTypeFunctionHelperI14QSharedPointerI9QbElementELb1EE8DestructEPv@Base 6.2.0
 _ZN17QtMetaTypePrivate23QMetaTypeFunctionHelperI14QSharedPointerI9QbElementELb1EE9ConstructEPvPKv@Base 6.2.0
 _ZN17QtMetaTypePrivate23QMetaTypeFunctionHelperI5QListIiELb1EE8DestructEPv@Base 6.2.0
 _ZN17QtMetaTypePrivate23QMetaTypeFunctionHelperI5QListIiELb1EE9ConstructEPvPKv@Base 6.2.0
 _ZN17QtMetaTypePrivate23QMetaTypeFunctionHelperI6QColorLb1EE8DestructEPv@Base 6.2.0
 _ZN17QtMetaTypePrivate23QMetaTypeFunctionHelperI6QColorLb1EE9ConstructEPvPKv@Base 6.2.0
 _ZN17QtMetaTypePrivate23QMetaTypeFunctionHelperI6QbCapsLb1EE4LoadER11QDataStreamPv@Base 6.2.0
 _ZN17QtMetaTypePrivate23QMetaTypeFunctionHelperI6QbCapsLb1EE4SaveER11QDataStreamPKv@Base 6.2.0
 _ZN17QtMetaTypePrivate23QMetaTypeFunctionHelperI6QbCapsLb1EE8DestructEPv@Base 6.2.0
 _ZN17QtMetaTypePrivate23QMetaTypeFunctionHelperI6QbCapsLb1EE9ConstructEPvPKv@Base 6.2.0
 _ZN17QtMetaTypePrivate23QMetaTypeFunctionHelperI6QbFracLb1EE4LoadER11QDataStreamPv@Base 6.2.0
 _ZN17QtMetaTypePrivate23QMetaTypeFunctionHelperI6QbFracLb1EE4SaveER11QDataStreamPKv@Base 6.2.0
 _ZN17QtMetaTypePrivate23QMetaTypeFunctionHelperI6QbFracLb1EE8DestructEPv@Base 6.2.0
 _ZN17QtMetaTypePrivate23QMetaTypeFunctionHelperI6QbFracLb1EE9ConstructEPvPKv@Base 6.2.0
 _ZN17QtMetaTypePrivate23QMetaTypeFunctionHelperI8QbPacketLb1EE8DestructEPv@Base 6.2.0
 _ZN17QtMetaTypePrivate23QMetaTypeFunctionHelperI8QbPacketLb1EE9ConstructEPvPKv@Base 6.2.0
 _ZN17QtMetaTypePrivate23QMetaTypeFunctionHelperIN11QbAudioCaps12SampleFormatELb1EE8DestructEPv@Base 6.2.0
 _ZN17QtMetaTypePrivate23QMetaTypeFunctionHelperIN11QbAudioCaps12SampleFormatELb1EE9ConstructEPvPKv@Base 6.2.0
 _ZN17QtMetaTypePrivate23QMetaTypeFunctionHelperIN11QbAudioCaps13ChannelLayoutELb1EE8DestructEPv@Base 6.2.0
 _ZN17QtMetaTypePrivate23QMetaTypeFunctionHelperIN11QbAudioCaps13ChannelLayoutELb1EE9ConstructEPvPKv@Base 6.2.0
 _ZN17QtMetaTypePrivate23QMetaTypeFunctionHelperIN11QbVideoCaps11VideoFormatELb1EE8DestructEPv@Base 6.2.0
 _ZN17QtMetaTypePrivate23QMetaTypeFunctionHelperIN11QbVideoCaps11VideoFormatELb1EE9ConstructEPvPKv@Base 6.2.0
 _ZN17QtMetaTypePrivate23QMetaTypeFunctionHelperIN9QbElement12ElementStateELb1EE4LoadER11QDataStreamPv@Base 6.2.0
 _ZN17QtMetaTypePrivate23QMetaTypeFunctionHelperIN9QbElement12ElementStateELb1EE4SaveER11QDataStreamPKv@Base 6.2.0
 _ZN17QtMetaTypePrivate23QMetaTypeFunctionHelperIN9QbElement12ElementStateELb1EE8DestructEPv@Base 6.2.0
 _ZN17QtMetaTypePrivate23QMetaTypeFunctionHelperIN9QbElement12ElementStateELb1EE9ConstructEPvPKv@Base 6.2.0
 _ZN17QtMetaTypePrivate23QMetaTypeFunctionHelperINS_23QSequentialIterableImplELb1EE8DestructEPv@Base 6.2.0
 _ZN17QtMetaTypePrivate23QMetaTypeFunctionHelperINS_23QSequentialIterableImplELb1EE9ConstructEPvPKv@Base 6.2.0
 _ZN17QtMetaTypePrivate23QMetaTypeFunctionHelperIP10QQmlEngineLb1EE8DestructEPv@Base 6.2.0
 _ZN17QtMetaTypePrivate23QMetaTypeFunctionHelperIP10QQmlEngineLb1EE9ConstructEPvPKv@Base 6.2.0
 _ZN17QtMetaTypePrivate23QMetaTypeFunctionHelperIjLb1EE8DestructEPv@Base 6.2.0
 _ZN17QtMetaTypePrivate23QMetaTypeFunctionHelperIjLb1EE9ConstructEPvPKv@Base 6.2.0
 _ZN17QtMetaTypePrivate23QSequentialIterableImpl13moveToEndImplI5QListIiEEEvPKvPPv@Base 6.2.0
 _ZN17QtMetaTypePrivate23QSequentialIterableImpl15moveToBeginImplI5QListIiEEEvPKvPPv@Base 6.2.0
 _ZN17QtMetaTypePrivate23QSequentialIterableImpl6atImplI5QListIiEEEPKvS5_i@Base 6.2.0
 _ZN17QtMetaTypePrivate23QSequentialIterableImpl7getImplI5QListIiEEENS_11VariantDataEPKPvij@Base 6.2.0
 _ZN17QtMetaTypePrivate23QSequentialIterableImpl8sizeImplI5QListIiEEEiPKv@Base 6.2.0
 _ZN25QbMultimediaSourceElement10resetMediaEv@Base 6.2.0
 _ZN25QbMultimediaSourceElement10setStreamsERK5QListIiE@Base 6.2.0
 _ZN25QbMultimediaSourceElement11loopChangedEb@Base 6.2.0
 _ZN25QbMultimediaSourceElement11qt_metacallEN11QMetaObject4CallEiPPv@Base 6.2.0
 _ZN25QbMultimediaSourceElement11qt_metacastEPKc@Base 6.2.0
 _ZN25QbMultimediaSourceElement12mediaChangedERK7QString@Base 6.2.0
 _ZN25QbMultimediaSourceElement12resetStreamsEv@Base 6.2.0
 _ZN25QbMultimediaSourceElement13mediasChangedERK11QStringList@Base 6.2.0
 _ZN25QbMultimediaSourceElement14streamsChangedERK5QListIiE@Base 6.2.0
 _ZN25QbMultimediaSourceElement16staticMetaObjectE@Base 6.2.0
 _ZN25QbMultimediaSourceElement7setLoopEb@Base 6.2.0
 _ZN25QbMultimediaSourceElement8setMediaERK7QString@Base 6.2.0
 _ZN25QbMultimediaSourceElement9resetLoopEv@Base 6.2.0
 _ZN25QbMultimediaSourceElementC1EP7QObject@Base 6.2.0
 _ZN25QbMultimediaSourceElementC2EP7QObject@Base 6.2.0
 _ZN25QbMultimediaSourceElementD0Ev@Base 6.2.0
 _ZN25QbMultimediaSourceElementD1Ev@Base 6.2.0
 _ZN25QbMultimediaSourceElementD2Ev@Base 6.2.0
 _ZN2Qb12setQmlEngineEP10QQmlEngine@Base 6.2.0
 _ZN2Qb13qmlPluginPathEv@Base 6.2.0
 _ZN2Qb16setQmlPluginPathERK7QString@Base 6.2.0
 _ZN2Qb18resetQmlPluginPathEv@Base 6.2.0
 _ZN2Qb2idEv@Base 6.2.0
 _ZN2Qb4initEP10QQmlEngine@Base 6.2.0
 _ZN4QMapI7QString8QVariantE13detach_helperEv@Base 6.2.0
 _ZN4QMapI7QStringN6QImage6FormatEE13detach_helperEv@Base 6.2.0
 _ZN4QMapI7QStringS0_E13detach_helperEv@Base 6.2.0
 _ZN4QMapIN11QbAudioCaps13ChannelLayoutE7QStringE13detach_helperEv@Base 6.2.0
 _ZN4QMapIN11QbAudioCaps13ChannelLayoutE7QStringEixERKS1_@Base 6.2.0
 _ZN4QMapIN6QImage6FormatE7QStringE13detach_helperEv@Base 6.2.0
 _ZN5QListI10QByteArrayED1Ev@Base 6.2.0
 _ZN5QListI10QByteArrayED2Ev@Base 6.2.0
 _ZN5QListI11QMetaMethodE18detach_helper_growEii@Base 6.2.0
 _ZN5QListI11QMetaMethodE6appendERKS0_@Base 6.2.0
 _ZN5QListI11QMetaMethodEC1ERKS1_@Base 6.2.0
 _ZN5QListI11QMetaMethodEC2ERKS1_@Base 6.2.0
 _ZN5QListI11QMetaMethodED1Ev@Base 6.2.0
 _ZN5QListI11QMetaMethodED2Ev@Base 6.2.0
 _ZN5QListI7QStringE13detach_helperEi@Base 6.2.0
 _ZN5QListI7QStringE18detach_helper_growEii@Base 6.2.0
 _ZN5QListI7QStringE5clearEv@Base 6.2.0
 _ZN5QListI7QStringE6appendERKS0_@Base 6.2.0
 _ZN5QListI7QStringE9removeAllERKS0_@Base 6.2.0
 _ZN5QListI7QStringEC1ERKS1_@Base 6.2.0
 _ZN5QListI7QStringEC2ERKS1_@Base 6.2.0
 _ZN5QListI7QStringED1Ev@Base 6.2.0
 _ZN5QListI7QStringED2Ev@Base 6.2.0
 _ZN5QListI7QStringEpLERKS1_@Base 6.2.0
 _ZN5QListIiEC1ERKS0_@Base 6.2.0
 _ZN5QListIiEC2ERKS0_@Base 6.2.0
 _ZN5QListIiED1Ev@Base 6.2.0
 _ZN5QListIiED2Ev@Base 6.2.0
 _ZN6QbCaps10fromStringERK7QString@Base 6.2.0
 _ZN6QbCaps11qt_metacallEN11QMetaObject4CallEiPPv@Base 6.2.0
 _ZN6QbCaps11qt_metacastEPKc@Base 6.2.0
 _ZN6QbCaps11setMimeTypeERK7QString@Base 6.2.0
 _ZN6QbCaps13resetMimeTypeEv@Base 6.2.0
 _ZN6QbCaps15mimeTypeChangedERK7QString@Base 6.2.0
 _ZN6QbCaps16staticMetaObjectE@Base 6.2.0
 _ZN6QbCaps5clearEv@Base 6.2.0
 _ZN6QbCaps6updateERKS_@Base 6.2.0
 _ZN6QbCaps7fromMapERK4QMapI7QString8QVariantE@Base 6.2.0
 _ZN6QbCapsC1EP7QObject@Base 6.2.0
 _ZN6QbCapsC1ERK4QMapI7QString8QVariantE@Base 6.2.0
 _ZN6QbCapsC1ERK7QString@Base 6.2.0
 _ZN6QbCapsC1ERKS_@Base 6.2.0
 _ZN6QbCapsC2EP7QObject@Base 6.2.0
 _ZN6QbCapsC2ERK4QMapI7QString8QVariantE@Base 6.2.0
 _ZN6QbCapsC2ERK7QString@Base 6.2.0
 _ZN6QbCapsC2ERKS_@Base 6.2.0
 _ZN6QbCapsD0Ev@Base 6.2.0
 _ZN6QbCapsD1Ev@Base 6.2.0
 _ZN6QbCapsD2Ev@Base 6.2.0
 _ZN6QbCapsaSERKS_@Base 6.2.0
 _ZN6QbFrac10denChangedEv@Base 6.2.0
 _ZN6QbFrac10numChangedEv@Base 6.2.0
 _ZN6QbFrac11qt_metacallEN11QMetaObject4CallEiPPv@Base 6.2.0
 _ZN6QbFrac11qt_metacastEPKc@Base 6.2.0
 _ZN6QbFrac12valueChangedEv@Base 6.2.0
 _ZN6QbFrac13stringChangedEv@Base 6.2.0
 _ZN6QbFrac14isValidChangedEv@Base 6.2.0
 _ZN6QbFrac16staticMetaObjectE@Base 6.2.0
 _ZN6QbFrac6setDenEx@Base 6.2.0
 _ZN6QbFrac6setNumEx@Base 6.2.0
 _ZN6QbFrac8resetDenEv@Base 6.2.0
 _ZN6QbFrac8resetNumEv@Base 6.2.0
 _ZN6QbFrac9setNumDenERK7QString@Base 6.2.0
 _ZN6QbFrac9setNumDenExx@Base 6.2.0
 _ZN6QbFracC1EP7QObject@Base 6.2.0
 _ZN6QbFracC1ERK7QString@Base 6.2.0
 _ZN6QbFracC1ERKS_@Base 6.2.0
 _ZN6QbFracC1Exx@Base 6.2.0
 _ZN6QbFracC2EP7QObject@Base 6.2.0
 _ZN6QbFracC2ERK7QString@Base 6.2.0
 _ZN6QbFracC2ERKS_@Base 6.2.0
 _ZN6QbFracC2Exx@Base 6.2.0
 _ZN6QbFracD0Ev@Base 6.2.0
 _ZN6QbFracD1Ev@Base 6.2.0
 _ZN6QbFracD2Ev@Base 6.2.0
 _ZN6QbFracaSERKS_@Base 6.2.0
 _ZN7QStringD1Ev@Base 6.2.0
 _ZN7QStringD2Ev@Base 6.2.0
 _ZN7QbUtils13imageToPacketERK6QImageRK8QbPacket@Base 6.2.0
 _ZN7QbUtils13packetToImageERK8QbPacket@Base 6.2.0
 _ZN7QbUtils19defaultSampleFormatEN12QAudioFormat10SampleTypeEib@Base 6.2.0
 _ZN7QbUtils20defaultChannelLayoutEi@Base 6.2.0
 _ZN8QMapNodeI7QString8QVariantE14destroySubTreeEv@Base 6.2.0
 _ZN8QMapNodeI7QStringN6QImage6FormatEE14destroySubTreeEv@Base 6.2.0
 _ZN8QMapNodeI7QStringS0_E14destroySubTreeEv@Base 6.2.0
 _ZN8QMapNodeIN11QbAudioCaps13ChannelLayoutE7QStringE14destroySubTreeEv@Base 6.2.0
 _ZN8QMapNodeIN6QImage6FormatE7QStringE14destroySubTreeEv@Base 6.2.0
 _ZN8QbPacket10bufferSizeEv@Base 6.2.0
 _ZN8QbPacket10ptsChangedEv@Base 6.2.0
 _ZN8QbPacket10resetIndexEv@Base 6.2.0
 _ZN8QbPacket11capsChangedEv@Base 6.2.0
 _ZN8QbPacket11dataChangedEv@Base 6.2.0
 _ZN8QbPacket11qt_metacallEN11QMetaObject4CallEiPPv@Base 6.2.0
 _ZN8QbPacket11qt_metacastEPKc@Base 6.2.0
 _ZN8QbPacket11resetBufferEv@Base 6.2.0
 _ZN8QbPacket11setTimeBaseERK6QbFrac@Base 6.2.0
 _ZN8QbPacket12indexChangedEv@Base 6.2.0
 _ZN8QbPacket13bufferChangedEv@Base 6.2.0
 _ZN8QbPacket13resetTimeBaseEv@Base 6.2.0
 _ZN8QbPacket13setBufferSizeEm@Base 6.2.0
 _ZN8QbPacket15resetBufferSizeEv@Base 6.2.0
 _ZN8QbPacket15timeBaseChangedEv@Base 6.2.0
 _ZN8QbPacket16staticMetaObjectE@Base 6.2.0
 _ZN8QbPacket17bufferSizeChangedEv@Base 6.2.0
 _ZN8QbPacket2idEv@Base 6.2.0
 _ZN8QbPacket3ptsEv@Base 6.2.0
 _ZN8QbPacket4capsEv@Base 6.2.0
 _ZN8QbPacket4dataEv@Base 6.2.0
 _ZN8QbPacket5indexEv@Base 6.2.0
 _ZN8QbPacket5setIdEx@Base 6.2.0
 _ZN8QbPacket6bufferEv@Base 6.2.0
 _ZN8QbPacket6setPtsEx@Base 6.2.0
 _ZN8QbPacket7resetIdEv@Base 6.2.0
 _ZN8QbPacket7setCapsERK6QbCaps@Base 6.2.0
 _ZN8QbPacket7setDataERK8QVariant@Base 6.2.0
 _ZN8QbPacket8resetPtsEv@Base 6.2.0
 _ZN8QbPacket8setIndexEi@Base 6.2.0
 _ZN8QbPacket8timeBaseEv@Base 6.2.0
 _ZN8QbPacket9idChangedEv@Base 6.2.0
 _ZN8QbPacket9resetCapsEv@Base 6.2.0
 _ZN8QbPacket9resetDataEv@Base 6.2.0
 _ZN8QbPacket9setBufferERK14QSharedPointerIcE@Base 6.2.0
 _ZN8QbPacketC1EP7QObject@Base 6.2.0
 _ZN8QbPacketC1ERK6QbCapsRK14QSharedPointerIcEmxRK6QbFracix@Base 6.2.0
 _ZN8QbPacketC1ERKS_@Base 6.2.0
 _ZN8QbPacketC2EP7QObject@Base 6.2.0
 _ZN8QbPacketC2ERK6QbCapsRK14QSharedPointerIcEmxRK6QbFracix@Base 6.2.0
 _ZN8QbPacketC2ERKS_@Base 6.2.0
 _ZN8QbPacketD0Ev@Base 6.2.0
 _ZN8QbPacketD1Ev@Base 6.2.0
 _ZN8QbPacketD2Ev@Base 6.2.0
 _ZN8QbPacketaSERKS_@Base 6.2.0
 _ZN9QbElement10clearCacheEv@Base 6.2.0
 _ZN9QbElement10pluginInfoERK7QString@Base 6.2.0
 _ZN9QbElement10pluginPathERK7QString@Base 6.2.0
 _ZN9QbElement10resetStateEv@Base 6.2.0
 _ZN9QbElement11listPluginsERK7QString@Base 6.2.0
 _ZN9QbElement11qt_metacallEN11QMetaObject4CallEiPPv@Base 6.2.0
 _ZN9QbElement11qt_metacastEPKc@Base 6.2.0
 _ZN9QbElement11searchPathsENS_11SearchPathsE@Base 6.2.0
 _ZN9QbElement11stateChangeENS_12ElementStateES0_@Base 6.2.0
 _ZN9QbElement12stateChangedENS_12ElementStateE@Base 6.2.0
 _ZN9QbElement13addSearchPathERK7QString@Base 6.2.0
 _ZN9QbElement14setSearchPathsERK11QStringList@Base 6.2.0
 _ZN9QbElement15listPluginPathsERK7QString@Base 6.2.0
 _ZN9QbElement15listPluginPathsEv@Base 6.2.0
 _ZN9QbElement15recursiveSearchEv@Base 6.2.0
 _ZN9QbElement16resetSearchPathsEv@Base 6.2.0
 _ZN9QbElement16staticMetaObjectE@Base 6.2.0
 _ZN9QbElement18setRecursiveSearchEb@Base 6.2.0
 _ZN9QbElement4linkERK14QSharedPointerIS_EPK7QObjectN2Qt14ConnectionTypeE@Base 6.2.0
 _ZN9QbElement4linkERK14QSharedPointerIS_ES3_N2Qt14ConnectionTypeE@Base 6.2.0
 _ZN9QbElement6createERK7QStringS2_@Base 6.2.0
 _ZN9QbElement6unlinkERK14QSharedPointerIS_EPK7QObject@Base 6.2.0
 _ZN9QbElement6unlinkERK14QSharedPointerIS_ES3_@Base 6.2.0
 _ZN9QbElement7iStreamERK13QbAudioPacket@Base 6.2.0
 _ZN9QbElement7iStreamERK13QbVideoPacket@Base 6.2.0
 _ZN9QbElement7iStreamERK8QbPacket@Base 6.2.0
 _ZN9QbElement7oStreamERK8QbPacket@Base 6.2.0
 _ZN9QbElement8setStateENS_12ElementStateE@Base 6.2.0
 _ZN9QbElementC1EP7QObject@Base 6.2.0
 _ZN9QbElementC2EP7QObject@Base 6.2.0
 _ZN9QbElementD0Ev@Base 6.2.0
 _ZN9QbElementD1Ev@Base 6.2.0
 _ZN9QbElementD2Ev@Base 6.2.0
 _ZN9QtPrivate16ConverterFunctorI14QSharedPointerI9QbElementEP7QObjectNS_27QSmartPointerConvertFunctorIS3_EEE7convertEPKNS_25AbstractConverterFunctionEPKvPv@Base 6.2.0
 _ZN9QtPrivate16ConverterFunctorI14QSharedPointerI9QbElementEP7QObjectNS_27QSmartPointerConvertFunctorIS3_EEED1Ev@Base 6.2.0
 _ZN9QtPrivate16ConverterFunctorI14QSharedPointerI9QbElementEP7QObjectNS_27QSmartPointerConvertFunctorIS3_EEED2Ev@Base 6.2.0
 _ZN9QtPrivate16ConverterFunctorI5QListIiEN17QtMetaTypePrivate23QSequentialIterableImplENS3_33QSequentialIterableConvertFunctorIS2_EEE7convertEPKNS_25AbstractConverterFunctionEPKvPv@Base 6.2.0
 _ZN9QtPrivate16ConverterFunctorI5QListIiEN17QtMetaTypePrivate23QSequentialIterableImplENS3_33QSequentialIterableConvertFunctorIS2_EEED1Ev@Base 6.2.0
 _ZN9QtPrivate16ConverterFunctorI5QListIiEN17QtMetaTypePrivate23QSequentialIterableImplENS3_33QSequentialIterableConvertFunctorIS2_EEED2Ev@Base 6.2.0
 _ZNK11QbAudioCaps10metaObjectEv@Base 6.2.0
 _ZNK11QbAudioCaps3bpsEv@Base 6.2.0
 _ZNK11QbAudioCaps4rateEv@Base 6.2.0
 _ZNK11QbAudioCaps5alignEv@Base 6.2.0
 _ZNK11QbAudioCaps5toMapEv@Base 6.2.0
 _ZNK11QbAudioCaps6formatEv@Base 6.2.0
 _ZNK11QbAudioCaps6layoutEv@Base 6.2.0
 _ZNK11QbAudioCaps6toCapsEv@Base 6.2.0
 _ZNK11QbAudioCaps7isValidEv@Base 6.2.0
 _ZNK11QbAudioCaps7samplesEv@Base 6.2.0
 _ZNK11QbAudioCaps8channelsEv@Base 6.2.0
 _ZNK11QbAudioCaps8toStringEv@Base 6.2.0
 _ZNK11QbAudioCapscvbEv@Base 6.2.0
 _ZNK11QbAudioCapseqERKS_@Base 6.2.0
 _ZNK11QbAudioCapsneERKS_@Base 6.2.0
 _ZNK11QbVideoCaps10metaObjectEv@Base 6.2.0
 _ZNK11QbVideoCaps3fpsEv@Base 6.2.0
 _ZNK11QbVideoCaps5toMapEv@Base 6.2.0
 _ZNK11QbVideoCaps5widthEv@Base 6.2.0
 _ZNK11QbVideoCaps6formatEv@Base 6.2.0
 _ZNK11QbVideoCaps6heightEv@Base 6.2.0
 _ZNK11QbVideoCaps6toCapsEv@Base 6.2.0
 _ZNK11QbVideoCaps7isValidEv@Base 6.2.0
 _ZNK11QbVideoCaps8toStringEv@Base 6.2.0
 _ZNK11QbVideoCapscvbEv@Base 6.2.0
 _ZNK11QbVideoCapseqERKS_@Base 6.2.0
 _ZNK11QbVideoCapsneERKS_@Base 6.2.0
 _ZNK13QbAudioPacket10metaObjectEv@Base 6.2.0
 _ZNK13QbAudioPacket4capsEv@Base 6.2.0
 _ZNK13QbAudioPacket8toPacketEv@Base 6.2.0
 _ZNK13QbAudioPacket8toStringEv@Base 6.2.0
 _ZNK13QbAudioPacketcvbEv@Base 6.2.0
 _ZNK13QbVideoPacket10metaObjectEv@Base 6.2.0
 _ZNK13QbVideoPacket4capsEv@Base 6.2.0
 _ZNK13QbVideoPacket8toPacketEv@Base 6.2.0
 _ZNK13QbVideoPacket8toStringEv@Base 6.2.0
 _ZNK13QbVideoPacketcvbEv@Base 6.2.0
 _ZNK25QbMultimediaSourceElement10metaObjectEv@Base 6.2.0
 _ZNK25QbMultimediaSourceElement11descriptionERK7QString@Base 6.2.0
 _ZNK25QbMultimediaSourceElement12isCompressedEi@Base 6.2.0
 _ZNK25QbMultimediaSourceElement13defaultStreamERK7QString@Base 6.2.0
 _ZNK25QbMultimediaSourceElement4capsEi@Base 6.2.0
 _ZNK25QbMultimediaSourceElement4loopEv@Base 6.2.0
 _ZNK25QbMultimediaSourceElement5mediaEv@Base 6.2.0
 _ZNK25QbMultimediaSourceElement6mediasEv@Base 6.2.0
 _ZNK25QbMultimediaSourceElement7streamsEv@Base 6.2.0
 _ZNK4QMapIN11QbAudioCaps13ChannelLayoutE7QStringE3keyERKS2_RKS1_@Base 6.2.0
 _ZNK6QbCaps10metaObjectEv@Base 6.2.0
 _ZNK6QbCaps12isCompatibleERKS_@Base 6.2.0
 _ZNK6QbCaps5toMapEv@Base 6.2.0
 _ZNK6QbCaps7isValidEv@Base 6.2.0
 _ZNK6QbCaps8containsERK7QString@Base 6.2.0
 _ZNK6QbCaps8mimeTypeEv@Base 6.2.0
 _ZNK6QbCaps8toStringEv@Base 6.2.0
 _ZNK6QbCapscvbEv@Base 6.2.0
 _ZNK6QbCapseqERKS_@Base 6.2.0
 _ZNK6QbCapsneERKS_@Base 6.2.0
 _ZNK6QbFrac10metaObjectEv@Base 6.2.0
 _ZNK6QbFrac3denEv@Base 6.2.0
 _ZNK6QbFrac3numEv@Base 6.2.0
 _ZNK6QbFrac5valueEv@Base 6.2.0
 _ZNK6QbFrac6invertEv@Base 6.2.0
 _ZNK6QbFrac7isValidEv@Base 6.2.0
 _ZNK6QbFrac8toStringEv@Base 6.2.0
 _ZNK6QbFrac9fastValueEv@Base 6.2.0
 _ZNK6QbFraceqERKS_@Base 6.2.0
 _ZNK6QbFracmlERKS_@Base 6.2.0
 _ZNK6QbFracneERKS_@Base 6.2.0
 _ZNK8QMapDataI7QString8QVariantE8findNodeERKS0_@Base 6.2.0
 _ZNK8QMapDataI7QStringN6QImage6FormatEE8findNodeERKS0_@Base 6.2.0
 _ZNK8QMapDataI7QStringS0_E8findNodeERKS0_@Base 6.2.0
 _ZNK8QMapNodeI7QString8QVariantE4copyEP8QMapDataIS0_S1_E@Base 6.2.0
 _ZNK8QMapNodeI7QStringN6QImage6FormatEE4copyEP8QMapDataIS0_S2_E@Base 6.2.0
 _ZNK8QMapNodeI7QStringS0_E4copyEP8QMapDataIS0_S0_E@Base 6.2.0
 _ZNK8QMapNodeIN11QbAudioCaps13ChannelLayoutE7QStringE4copyEP8QMapDataIS1_S2_E@Base 6.2.0
 _ZNK8QMapNodeIN6QImage6FormatE7QStringE4copyEP8QMapDataIS1_S2_E@Base 6.2.0
 _ZNK8QbPacket10bufferSizeEv@Base 6.2.0
 _ZNK8QbPacket10metaObjectEv@Base 6.2.0
 _ZNK8QbPacket2idEv@Base 6.2.0
 _ZNK8QbPacket3ptsEv@Base 6.2.0
 _ZNK8QbPacket4capsEv@Base 6.2.0
 _ZNK8QbPacket4dataEv@Base 6.2.0
 _ZNK8QbPacket5indexEv@Base 6.2.0
 _ZNK8QbPacket6bufferEv@Base 6.2.0
 _ZNK8QbPacket8timeBaseEv@Base 6.2.0
 _ZNK8QbPacket8toStringEv@Base 6.2.0
 _ZNK8QbPacketcvbEv@Base 6.2.0
 _ZNK9QbElement10metaObjectEv@Base 6.2.0
 _ZNK9QbElement16controlInterfaceEP10QQmlEngineRK7QString@Base 6.2.0
 _ZNK9QbElement4linkEPK7QObjectN2Qt14ConnectionTypeE@Base 6.2.0
 _ZNK9QbElement4linkERK14QSharedPointerIS_EN2Qt14ConnectionTypeE@Base 6.2.0
 _ZNK9QbElement5stateEv@Base 6.2.0
 _ZNK9QbElement6unlinkEPK7QObject@Base 6.2.0
 _ZNK9QbElement6unlinkERK14QSharedPointerIS_E@Base 6.2.0
 _ZNK9QbElement8pluginIdEv@Base 6.2.0
 _ZSt9__find_ifIPK10QByteArrayN9__gnu_cxx5__ops16_Iter_equals_valIS1_EEET_S7_S7_T0_St26random_access_iterator_tag@Base 6.2.0
 _ZTI11QbAudioCaps@Base 6.2.0
 _ZTI11QbVideoCaps@Base 6.2.0
 _ZTI13QbAudioPacket@Base 6.2.0
 _ZTI13QbVideoPacket@Base 6.2.0
 _ZTI25QbMultimediaSourceElement@Base 6.2.0
 _ZTI6QbCaps@Base 6.2.0
 _ZTI6QbFrac@Base 6.2.0
 _ZTI8QbPacket@Base 6.2.0
 _ZTI9QbElement@Base 6.2.0
 _ZTS11QbAudioCaps@Base 6.2.0
 _ZTS11QbVideoCaps@Base 6.2.0
 _ZTS13QbAudioPacket@Base 6.2.0
 _ZTS13QbVideoPacket@Base 6.2.0
 _ZTS25QbMultimediaSourceElement@Base 6.2.0
 _ZTS6QbCaps@Base 6.2.0
 _ZTS6QbFrac@Base 6.2.0
 _ZTS8QbPacket@Base 6.2.0
 _ZTS9QbElement@Base 6.2.0
 _ZTV11QbAudioCaps@Base 6.2.0
 _ZTV11QbVideoCaps@Base 6.2.0
 _ZTV13QbAudioPacket@Base 6.2.0
 _ZTV13QbVideoPacket@Base 6.2.0
 _ZTV25QbMultimediaSourceElement@Base 6.2.0
 _ZTV6QbCaps@Base 6.2.0
 _ZTV6QbFrac@Base 6.2.0
 _ZTV8QbPacket@Base 6.2.0
 _ZTV9QbElement@Base 6.2.0
 _ZZN11QMetaTypeIdI11QbAudioCapsE14qt_metatype_idEvE11metatype_id@Base 6.2.0
 _ZZN11QMetaTypeIdI11QbVideoCapsE14qt_metatype_idEvE11metatype_id@Base 6.2.0
 _ZZN11QMetaTypeIdI13QbAudioPacketE14qt_metatype_idEvE11metatype_id@Base 6.2.0
 _ZZN11QMetaTypeIdI13QbVideoPacketE14qt_metatype_idEvE11metatype_id@Base 6.2.0
 _ZZN11QMetaTypeIdI5QListIiEE14qt_metatype_idEvE11metatype_id@Base 6.2.0
 _ZZN11QMetaTypeIdI6QbCapsE14qt_metatype_idEvE11metatype_id@Base 6.2.0
 _ZZN11QMetaTypeIdI6QbFracE14qt_metatype_idEvE11metatype_id@Base 6.2.0
 _ZZN11QMetaTypeIdI8QbPacketE14qt_metatype_idEvE11metatype_id@Base 6.2.0
 _ZZN11QMetaTypeIdIN11QbAudioCaps12SampleFormatEE14qt_metatype_idEvE11metatype_id@Base 6.2.0
 _ZZN11QMetaTypeIdIN11QbAudioCaps13ChannelLayoutEE14qt_metatype_idEvE11metatype_id@Base 6.2.0
 _ZZN11QMetaTypeIdIN11QbVideoCaps11VideoFormatEE14qt_metatype_idEvE11metatype_id@Base 6.2.0
 _ZZN11QMetaTypeIdIN17QtMetaTypePrivate23QSequentialIterableImplEE14qt_metatype_idEvE11metatype_id@Base 6.2.0
 _ZZN11QMetaTypeIdIN9QbElement12ElementStateEE14qt_metatype_idEvE11metatype_id@Base 6.2.0
 _ZZN18QMetaTypeIdQObjectIP10QQmlEngineLi8EE14qt_metatype_idEvE11metatype_id@Base 6.2.0
 _ZZN9QtPrivate19ValueTypeIsMetaTypeI5QListIiELb1EE17registerConverterEiE1f@Base 6.2.0
 _ZZN9QtPrivate26MetaTypeSmartPointerHelperI14QSharedPointerI9QbElementEvE17registerConverterEiE1f@Base 6.2.0
 _ZZN9QtPrivate29SharedPointerMetaTypeIdHelperI14QSharedPointerI9QbElementELb1EE14qt_metatype_idEvE11metatype_id@Base 6.2.0
 _ZdvRK6QbFracS1_@Base 6.2.0
 _ZdviRK6QbFrac@Base 6.2.0
 _Zls6QDebugRK11QbAudioCaps@Base 6.2.0
 _Zls6QDebugRK11QbVideoCaps@Base 6.2.0
 _Zls6QDebugRK13QbAudioPacket@Base 6.2.0
 _Zls6QDebugRK13QbVideoPacket@Base 6.2.0
 _Zls6QDebugRK6QbCaps@Base 6.2.0
 _Zls6QDebugRK6QbFrac@Base 6.2.0
 _Zls6QDebugRK8QbPacket@Base 6.2.0
 _ZlsR11QDataStreamN9QbElement12ElementStateE@Base 6.2.0
 _ZlsR11QDataStreamRK11QbAudioCaps@Base 6.2.0
 _ZlsR11QDataStreamRK11QbVideoCaps@Base 6.2.0
 _ZlsR11QDataStreamRK6QbCaps@Base 6.2.0
 _ZlsR11QDataStreamRK6QbFrac@Base 6.2.0
 _ZmliRK6QbFrac@Base 6.2.0
 _ZrsR11QDataStreamR11QbAudioCaps@Base 6.2.0
 _ZrsR11QDataStreamR11QbVideoCaps@Base 6.2.0
 _ZrsR11QDataStreamR6QbCaps@Base 6.2.0
 _ZrsR11QDataStreamR6QbFrac@Base 6.2.0
 _ZrsR11QDataStreamRN9QbElement12ElementStateE@Base 6.2.0
 globalEngine@Base 6.2.0
